
light_sensor_test.elf:     file format elf32-avr

Sections:
Idx Name          Size      VMA       LMA       File off  Algn
  0 .data         00000030  00800100  000022dc  00002370  2**0
                  CONTENTS, ALLOC, LOAD, DATA
  1 .text         000022dc  00000000  00000000  00000094  2**1
                  CONTENTS, ALLOC, LOAD, READONLY, CODE
  2 .bss          00000041  00800130  00800130  000023a0  2**0
                  ALLOC
  3 .stab         000061e0  00000000  00000000  000023a0  2**2
                  CONTENTS, READONLY, DEBUGGING
  4 .stabstr      00006586  00000000  00000000  00008580  2**0
                  CONTENTS, READONLY, DEBUGGING
  5 .debug_aranges 00000020  00000000  00000000  0000eb06  2**0
                  CONTENTS, READONLY, DEBUGGING
  6 .debug_pubnames 0000009d  00000000  00000000  0000eb26  2**0
                  CONTENTS, READONLY, DEBUGGING
  7 .debug_info   000007cb  00000000  00000000  0000ebc3  2**0
                  CONTENTS, READONLY, DEBUGGING
  8 .debug_abbrev 000002d4  00000000  00000000  0000f38e  2**0
                  CONTENTS, READONLY, DEBUGGING
  9 .debug_line   00000366  00000000  00000000  0000f662  2**0
                  CONTENTS, READONLY, DEBUGGING
 10 .debug_frame  00000080  00000000  00000000  0000f9c8  2**2
                  CONTENTS, READONLY, DEBUGGING
 11 .debug_str    00000a76  00000000  00000000  0000fa48  2**0
                  CONTENTS, READONLY, DEBUGGING
 12 .debug_loc    00000100  00000000  00000000  000104be  2**0
                  CONTENTS, READONLY, DEBUGGING

Disassembly of section .text:

00000000 <__vectors>:
       0:	0c 94 46 00 	jmp	0x8c	; 0x8c <__ctors_end>
       4:	0c 94 65 00 	jmp	0xca	; 0xca <__bad_interrupt>
       8:	0c 94 65 00 	jmp	0xca	; 0xca <__bad_interrupt>
       c:	0c 94 65 00 	jmp	0xca	; 0xca <__bad_interrupt>
      10:	0c 94 65 00 	jmp	0xca	; 0xca <__bad_interrupt>
      14:	0c 94 65 00 	jmp	0xca	; 0xca <__bad_interrupt>
      18:	0c 94 65 00 	jmp	0xca	; 0xca <__bad_interrupt>
      1c:	0c 94 65 00 	jmp	0xca	; 0xca <__bad_interrupt>
      20:	0c 94 65 00 	jmp	0xca	; 0xca <__bad_interrupt>
      24:	0c 94 65 00 	jmp	0xca	; 0xca <__bad_interrupt>
      28:	0c 94 65 00 	jmp	0xca	; 0xca <__bad_interrupt>
      2c:	0c 94 b4 0c 	jmp	0x1968	; 0x1968 <__vector_11>
      30:	0c 94 65 00 	jmp	0xca	; 0xca <__bad_interrupt>
      34:	0c 94 65 00 	jmp	0xca	; 0xca <__bad_interrupt>
      38:	0c 94 65 00 	jmp	0xca	; 0xca <__bad_interrupt>
      3c:	0c 94 65 00 	jmp	0xca	; 0xca <__bad_interrupt>
      40:	0c 94 65 00 	jmp	0xca	; 0xca <__bad_interrupt>
      44:	0c 94 65 00 	jmp	0xca	; 0xca <__bad_interrupt>
      48:	0c 94 65 00 	jmp	0xca	; 0xca <__bad_interrupt>
      4c:	0c 94 65 00 	jmp	0xca	; 0xca <__bad_interrupt>
      50:	0c 94 f1 08 	jmp	0x11e2	; 0x11e2 <__vector_20>
      54:	0c 94 bb 0a 	jmp	0x1576	; 0x1576 <__vector_21>
      58:	0c 94 65 00 	jmp	0xca	; 0xca <__bad_interrupt>
      5c:	0c 94 65 00 	jmp	0xca	; 0xca <__bad_interrupt>
      60:	0c 94 65 00 	jmp	0xca	; 0xca <__bad_interrupt>
      64:	0c 94 65 00 	jmp	0xca	; 0xca <__bad_interrupt>
      68:	0c 94 65 00 	jmp	0xca	; 0xca <__bad_interrupt>
      6c:	0c 94 65 00 	jmp	0xca	; 0xca <__bad_interrupt>
      70:	0c 94 2d 09 	jmp	0x125a	; 0x125a <__vector_28>
      74:	0c 94 e4 0a 	jmp	0x15c8	; 0x15c8 <__vector_29>
      78:	0c 94 65 00 	jmp	0xca	; 0xca <__bad_interrupt>
      7c:	0c 94 65 00 	jmp	0xca	; 0xca <__bad_interrupt>
      80:	0c 94 65 00 	jmp	0xca	; 0xca <__bad_interrupt>
      84:	0c 94 65 00 	jmp	0xca	; 0xca <__bad_interrupt>
      88:	0c 94 65 00 	jmp	0xca	; 0xca <__bad_interrupt>

0000008c <__ctors_end>:
      8c:	11 24       	eor	r1, r1
      8e:	1f be       	out	0x3f, r1	; 63
      90:	cf ef       	ldi	r28, 0xFF	; 255
      92:	d0 e4       	ldi	r29, 0x40	; 64
      94:	de bf       	out	0x3e, r29	; 62
      96:	cd bf       	out	0x3d, r28	; 61

00000098 <__do_copy_data>:
      98:	11 e0       	ldi	r17, 0x01	; 1
      9a:	a0 e0       	ldi	r26, 0x00	; 0
      9c:	b1 e0       	ldi	r27, 0x01	; 1
      9e:	ec ed       	ldi	r30, 0xDC	; 220
      a0:	f2 e2       	ldi	r31, 0x22	; 34
      a2:	00 e0       	ldi	r16, 0x00	; 0
      a4:	0b bf       	out	0x3b, r16	; 59
      a6:	02 c0       	rjmp	.+4      	; 0xac <__do_copy_data+0x14>
      a8:	07 90       	elpm	r0, Z+
      aa:	0d 92       	st	X+, r0
      ac:	a0 33       	cpi	r26, 0x30	; 48
      ae:	b1 07       	cpc	r27, r17
      b0:	d9 f7       	brne	.-10     	; 0xa8 <__do_copy_data+0x10>

000000b2 <__do_clear_bss>:
      b2:	11 e0       	ldi	r17, 0x01	; 1
      b4:	a0 e3       	ldi	r26, 0x30	; 48
      b6:	b1 e0       	ldi	r27, 0x01	; 1
      b8:	01 c0       	rjmp	.+2      	; 0xbc <.do_clear_bss_start>

000000ba <.do_clear_bss_loop>:
      ba:	1d 92       	st	X+, r1

000000bc <.do_clear_bss_start>:
      bc:	a1 37       	cpi	r26, 0x71	; 113
      be:	b1 07       	cpc	r27, r17
      c0:	e1 f7       	brne	.-8      	; 0xba <.do_clear_bss_loop>
      c2:	0e 94 77 00 	call	0xee	; 0xee <main>
      c6:	0c 94 6c 11 	jmp	0x22d8	; 0x22d8 <_exit>

000000ca <__bad_interrupt>:
      ca:	0c 94 00 00 	jmp	0	; 0x0 <__vectors>

000000ce <__cxa_guard_acquire>:

extern "C" int __cxa_guard_acquire(__guard *); 
extern "C" void __cxa_guard_release (__guard *); 
extern "C" void __cxa_guard_abort (__guard *); 

int __cxa_guard_acquire(__guard *g) {return !*(char *)(g);}; 
      ce:	fc 01       	movw	r30, r24
      d0:	20 e0       	ldi	r18, 0x00	; 0
      d2:	30 e0       	ldi	r19, 0x00	; 0
      d4:	80 81       	ld	r24, Z
      d6:	88 23       	and	r24, r24
      d8:	11 f4       	brne	.+4      	; 0xde <__cxa_guard_acquire+0x10>
      da:	21 e0       	ldi	r18, 0x01	; 1
      dc:	30 e0       	ldi	r19, 0x00	; 0
      de:	c9 01       	movw	r24, r18
      e0:	08 95       	ret

000000e2 <__cxa_guard_release>:
void __cxa_guard_release (__guard *g) {*(char *)g = 1;}; 
      e2:	fc 01       	movw	r30, r24
      e4:	81 e0       	ldi	r24, 0x01	; 1
      e6:	80 83       	st	Z, r24
      e8:	08 95       	ret

000000ea <__cxa_guard_abort>:
void __cxa_guard_abort (__guard *) {}; 
      ea:	08 95       	ret

000000ec <__cxa_pure_virtual>:

extern "C" void __cxa_pure_virtual(void); 
void __cxa_pure_virtual(void) {}; 
      ec:	08 95       	ret

000000ee <main>:

  
  
int main()   
      ee:	2f 92       	push	r2
      f0:	3f 92       	push	r3
      f2:	4f 92       	push	r4
      f4:	5f 92       	push	r5
      f6:	6f 92       	push	r6
      f8:	7f 92       	push	r7
      fa:	8f 92       	push	r8
      fc:	9f 92       	push	r9
      fe:	af 92       	push	r10
     100:	bf 92       	push	r11
     102:	cf 92       	push	r12
     104:	df 92       	push	r13
     106:	ef 92       	push	r14
     108:	ff 92       	push	r15
     10a:	0f 93       	push	r16
     10c:	1f 93       	push	r17
     10e:	df 93       	push	r29
     110:	cf 93       	push	r28
     112:	cd b7       	in	r28, 0x3d	; 61
     114:	de b7       	in	r29, 0x3e	; 62
     116:	28 97       	sbiw	r28, 0x08	; 8
     118:	0f b6       	in	r0, 0x3f	; 63
     11a:	f8 94       	cli
     11c:	de bf       	out	0x3e, r29	; 62
     11e:	0f be       	out	0x3f, r0	; 63
     120:	cd bf       	out	0x3d, r28	; 61
{   
  OrangutanLCD lcd; 
     122:	ce 01       	movw	r24, r28
     124:	01 96       	adiw	r24, 0x01	; 1
     126:	0e 94 ef 02 	call	0x5de	; 0x5de <_ZN12OrangutanLCDC1Ev>

  OrangutanAnalog anlg;
     12a:	ce 01       	movw	r24, r28
     12c:	02 96       	adiw	r24, 0x02	; 2
     12e:	0e 94 36 01 	call	0x26c	; 0x26c <_ZN15OrangutanAnalogC1Ev>

  OrangutanSerial::setBaudRate(USB_COMM, 115200);
     132:	82 e0       	ldi	r24, 0x02	; 2
     134:	40 e0       	ldi	r20, 0x00	; 0
     136:	52 ec       	ldi	r21, 0xC2	; 194
     138:	61 e0       	ldi	r22, 0x01	; 1
     13a:	70 e0       	ldi	r23, 0x00	; 0
     13c:	0e 94 12 08 	call	0x1024	; 0x1024 <_ZN15OrangutanSerial11setBaudRateEhm>
     140:	cc 24       	eor	r12, r12
     142:	dd 24       	eor	r13, r13

	delay_ms(100);

	int x = anlg.read(0);
	int a = x/1000;
	x = x - 1000*a;
     144:	58 e1       	ldi	r21, 0x18	; 24
     146:	45 2e       	mov	r4, r21
     148:	5c ef       	ldi	r21, 0xFC	; 252
     14a:	55 2e       	mov	r5, r21
	int b = x/100;
	x = x - 100*b;
     14c:	4c e9       	ldi	r20, 0x9C	; 156
     14e:	64 2e       	mov	r6, r20
     150:	4f ef       	ldi	r20, 0xFF	; 255
     152:	74 2e       	mov	r7, r20
	int c = x/10;
	x = x - 10*c;
	int d = x;

	//if((i%5)==0)
	  s_buffer[4] = '\r';
     154:	3d e0       	ldi	r19, 0x0D	; 13
     156:	23 2e       	mov	r2, r19
    //else s_buffer[4] = ' ';

	//if((i%5)==0)
	  s_buffer[5] = '\n';
     158:	2a e0       	ldi	r18, 0x0A	; 10
     15a:	32 2e       	mov	r3, r18
	//else s_buffer[5] = '\t';

	s_buffer[0] = a + '0';
	s_buffer[1] = b + '0';
	s_buffer[2] = c + '0';
	s_buffer[3] = d + '0';
     15c:	96 ef       	ldi	r25, 0xF6	; 246
     15e:	89 2e       	mov	r8, r25
     160:	9f ef       	ldi	r25, 0xFF	; 255
     162:	99 2e       	mov	r9, r25


    OrangutanSerial::send(USB_COMM, s_buffer, size);
     164:	83 e0       	ldi	r24, 0x03	; 3
     166:	a8 2e       	mov	r10, r24
     168:	b1 2c       	mov	r11, r1
     16a:	ac 0e       	add	r10, r28
     16c:	bd 1e       	adc	r11, r29

  for(int i=0; i<300; i++)
  {

	//lcd.clear();
    anlg.read(0);
     16e:	80 e0       	ldi	r24, 0x00	; 0
     170:	0e 94 49 02 	call	0x492	; 0x492 <_ZN15OrangutanAnalog4readEh>
// another C++ file.
inline unsigned long get_ms() { return OrangutanTime::ms(); }
inline unsigned long millis() { return OrangutanTime::ms(); }

inline void delay(unsigned int milliseconds) { OrangutanTime::delayMilliseconds(milliseconds); }
inline void delay_ms(unsigned int milliseconds) { OrangutanTime::delayMilliseconds(milliseconds); }
     174:	84 e6       	ldi	r24, 0x64	; 100
     176:	90 e0       	ldi	r25, 0x00	; 0
     178:	0e 94 1f 0d 	call	0x1a3e	; 0x1a3e <_ZN13OrangutanTime17delayMillisecondsEj>
	//lcd.print(anlg.read(0));

	delay_ms(100);

	int x = anlg.read(0);
     17c:	80 e0       	ldi	r24, 0x00	; 0
     17e:	0e 94 49 02 	call	0x492	; 0x492 <_ZN15OrangutanAnalog4readEh>
     182:	9c 01       	movw	r18, r24
	int a = x/1000;
     184:	68 ee       	ldi	r22, 0xE8	; 232
     186:	73 e0       	ldi	r23, 0x03	; 3
     188:	0e 94 8c 0f 	call	0x1f18	; 0x1f18 <__divmodhi4>
     18c:	fb 01       	movw	r30, r22
	x = x - 1000*a;
     18e:	64 9d       	mul	r22, r4
     190:	80 01       	movw	r16, r0
     192:	65 9d       	mul	r22, r5
     194:	10 0d       	add	r17, r0
     196:	74 9d       	mul	r23, r4
     198:	10 0d       	add	r17, r0
     19a:	11 24       	eor	r1, r1
     19c:	02 0f       	add	r16, r18
     19e:	13 1f       	adc	r17, r19
	int b = x/100;
     1a0:	c8 01       	movw	r24, r16
     1a2:	64 e6       	ldi	r22, 0x64	; 100
     1a4:	70 e0       	ldi	r23, 0x00	; 0
     1a6:	0e 94 8c 0f 	call	0x1f18	; 0x1f18 <__divmodhi4>
     1aa:	9b 01       	movw	r18, r22
	x = x - 100*b;
     1ac:	66 9d       	mul	r22, r6
     1ae:	70 01       	movw	r14, r0
     1b0:	67 9d       	mul	r22, r7
     1b2:	f0 0c       	add	r15, r0
     1b4:	76 9d       	mul	r23, r6
     1b6:	f0 0c       	add	r15, r0
     1b8:	11 24       	eor	r1, r1
     1ba:	e0 0e       	add	r14, r16
     1bc:	f1 1e       	adc	r15, r17
	int c = x/10;
     1be:	c7 01       	movw	r24, r14
     1c0:	6a e0       	ldi	r22, 0x0A	; 10
     1c2:	70 e0       	ldi	r23, 0x00	; 0
     1c4:	0e 94 8c 0f 	call	0x1f18	; 0x1f18 <__divmodhi4>
	x = x - 10*c;
	int d = x;

	//if((i%5)==0)
	  s_buffer[4] = '\r';
     1c8:	2f 82       	std	Y+7, r2	; 0x07
    //else s_buffer[4] = ' ';

	//if((i%5)==0)
	  s_buffer[5] = '\n';
     1ca:	38 86       	std	Y+8, r3	; 0x08
	//else s_buffer[5] = '\t';

	s_buffer[0] = a + '0';
     1cc:	e0 5d       	subi	r30, 0xD0	; 208
     1ce:	eb 83       	std	Y+3, r30	; 0x03
	s_buffer[1] = b + '0';
     1d0:	20 5d       	subi	r18, 0xD0	; 208
     1d2:	2c 83       	std	Y+4, r18	; 0x04
	s_buffer[2] = c + '0';
     1d4:	26 2f       	mov	r18, r22
     1d6:	20 5d       	subi	r18, 0xD0	; 208
     1d8:	2d 83       	std	Y+5, r18	; 0x05
	s_buffer[3] = d + '0';
     1da:	68 9d       	mul	r22, r8
     1dc:	c0 01       	movw	r24, r0
     1de:	69 9d       	mul	r22, r9
     1e0:	90 0d       	add	r25, r0
     1e2:	78 9d       	mul	r23, r8
     1e4:	90 0d       	add	r25, r0
     1e6:	11 24       	eor	r1, r1
     1e8:	8e 0d       	add	r24, r14
     1ea:	9f 1d       	adc	r25, r15
     1ec:	80 5d       	subi	r24, 0xD0	; 208
     1ee:	8e 83       	std	Y+6, r24	; 0x06


    OrangutanSerial::send(USB_COMM, s_buffer, size);
     1f0:	82 e0       	ldi	r24, 0x02	; 2
     1f2:	b5 01       	movw	r22, r10
     1f4:	46 e0       	ldi	r20, 0x06	; 6
     1f6:	0e 94 3d 0a 	call	0x147a	; 0x147a <_ZN15OrangutanSerial4sendEhPch>
     1fa:	02 c0       	rjmp	.+4      	; 0x200 <main+0x112>

    while(!OrangutanSerial::sendBufferEmpty(USB_COMM))
    {
	  OrangutanSerial::check();
     1fc:	0e 94 2b 0c 	call	0x1856	; 0x1856 <_ZN15OrangutanSerial5checkEv>
	static _SINGLE_PORT_INLINE char receiveBlocking(unsigned char port, char *buffer, unsigned char size, unsigned int timeout_ms);
	static _SINGLE_PORT_INLINE void receiveRing(unsigned char port, char *buffer, unsigned char size);
	static _SINGLE_PORT_INLINE void cancelReceive(unsigned char port);
	static _SINGLE_PORT_INLINE void send(unsigned char port, char *buffer, unsigned char size);
	static _SINGLE_PORT_INLINE void sendBlocking(unsigned char port, char *buffer, unsigned char size);
	static inline char sendBufferEmpty(unsigned char port) { return ports[port].sentBytes == ports[port].sendSize; }
     200:	90 91 19 01 	lds	r25, 0x0119
	s_buffer[3] = d + '0';


    OrangutanSerial::send(USB_COMM, s_buffer, size);

    while(!OrangutanSerial::sendBufferEmpty(USB_COMM))
     204:	80 91 1b 01 	lds	r24, 0x011B
     208:	98 17       	cp	r25, r24
     20a:	c1 f7       	brne	.-16     	; 0x1fc <main+0x10e>
  OrangutanSerial::setBaudRate(USB_COMM, 115200);

  char s_buffer[6];
  unsigned char size = 6;

  for(int i=0; i<300; i++)
     20c:	08 94       	sec
     20e:	c1 1c       	adc	r12, r1
     210:	d1 1c       	adc	r13, r1
     212:	3c e2       	ldi	r19, 0x2C	; 44
     214:	c3 16       	cp	r12, r19
     216:	31 e0       	ldi	r19, 0x01	; 1
     218:	d3 06       	cpc	r13, r19
     21a:	09 f0       	breq	.+2      	; 0x21e <main+0x130>
     21c:	a8 cf       	rjmp	.-176    	; 0x16e <main+0x80>
	  OrangutanSerial::check();
    }
  }
  
  return 0;
}  
     21e:	80 e0       	ldi	r24, 0x00	; 0
     220:	90 e0       	ldi	r25, 0x00	; 0
     222:	28 96       	adiw	r28, 0x08	; 8
     224:	0f b6       	in	r0, 0x3f	; 63
     226:	f8 94       	cli
     228:	de bf       	out	0x3e, r29	; 62
     22a:	0f be       	out	0x3f, r0	; 63
     22c:	cd bf       	out	0x3d, r28	; 61
     22e:	cf 91       	pop	r28
     230:	df 91       	pop	r29
     232:	1f 91       	pop	r17
     234:	0f 91       	pop	r16
     236:	ff 90       	pop	r15
     238:	ef 90       	pop	r14
     23a:	df 90       	pop	r13
     23c:	cf 90       	pop	r12
     23e:	bf 90       	pop	r11
     240:	af 90       	pop	r10
     242:	9f 90       	pop	r9
     244:	8f 90       	pop	r8
     246:	7f 90       	pop	r7
     248:	6f 90       	pop	r6
     24a:	5f 90       	pop	r5
     24c:	4f 90       	pop	r4
     24e:	3f 90       	pop	r3
     250:	2f 90       	pop	r2
     252:	08 95       	ret

00000254 <_ZdlPv>:
  return malloc(size); 
} 

void operator delete(void * ptr) 
{ 
  free(ptr); 
     254:	0e 94 a5 10 	call	0x214a	; 0x214a <free>
} 
     258:	08 95       	ret

0000025a <_Znwj>:
void * operator new(size_t size); 
void operator delete(void * ptr); 

void * operator new(size_t size) 
{ 
  return malloc(size); 
     25a:	0e 94 f8 0f 	call	0x1ff0	; 0x1ff0 <malloc>
} 
     25e:	08 95       	ret

00000260 <set_millivolt_calibration>:
     260:	90 93 01 01 	sts	0x0101, r25
     264:	80 93 00 01 	sts	0x0100, r24
     268:	08 95       	ret

0000026a <_ZN15OrangutanAnalogC2Ev>:
     26a:	08 95       	ret

0000026c <_ZN15OrangutanAnalogC1Ev>:
     26c:	08 95       	ret

0000026e <_ZN15OrangutanAnalog16conversionResultEv>:
     26e:	ef 92       	push	r14
     270:	ff 92       	push	r15
     272:	0f 93       	push	r16
     274:	1f 93       	push	r17
     276:	cf 93       	push	r28
     278:	df 93       	push	r29
     27a:	80 91 30 01 	lds	r24, 0x0130
     27e:	88 23       	and	r24, r24
     280:	09 f4       	brne	.+2      	; 0x284 <_ZN15OrangutanAnalog16conversionResultEv+0x16>
     282:	55 c0       	rjmp	.+170    	; 0x32e <_ZN15OrangutanAnalog16conversionResultEv+0xc0>
     284:	80 91 31 01 	lds	r24, 0x0131
     288:	90 91 32 01 	lds	r25, 0x0132
     28c:	20 91 7c 00 	lds	r18, 0x007C
     290:	c0 91 00 01 	lds	r28, 0x0100
     294:	d0 91 01 01 	lds	r29, 0x0101
     298:	bc 01       	movw	r22, r24
     29a:	80 e0       	ldi	r24, 0x00	; 0
     29c:	90 e0       	ldi	r25, 0x00	; 0
     29e:	25 ff       	sbrs	r18, 5
     2a0:	21 c0       	rjmp	.+66     	; 0x2e4 <_ZN15OrangutanAnalog16conversionResultEv+0x76>
     2a2:	7e 01       	movw	r14, r28
     2a4:	f6 94       	lsr	r15
     2a6:	e7 94       	ror	r14
     2a8:	00 e0       	ldi	r16, 0x00	; 0
     2aa:	10 e0       	ldi	r17, 0x00	; 0
     2ac:	2f ef       	ldi	r18, 0xFF	; 255
     2ae:	30 e0       	ldi	r19, 0x00	; 0
     2b0:	40 e0       	ldi	r20, 0x00	; 0
     2b2:	50 e0       	ldi	r21, 0x00	; 0
     2b4:	0e 94 59 0f 	call	0x1eb2	; 0x1eb2 <__mulsi3>
     2b8:	e6 0e       	add	r14, r22
     2ba:	f7 1e       	adc	r15, r23
     2bc:	08 1f       	adc	r16, r24
     2be:	19 1f       	adc	r17, r25
     2c0:	9e 01       	movw	r18, r28
     2c2:	40 e0       	ldi	r20, 0x00	; 0
     2c4:	50 e0       	ldi	r21, 0x00	; 0
     2c6:	c8 01       	movw	r24, r16
     2c8:	b7 01       	movw	r22, r14
     2ca:	0e 94 9f 0f 	call	0x1f3e	; 0x1f3e <__udivmodsi4>
     2ce:	c9 01       	movw	r24, r18
     2d0:	da 01       	movw	r26, r20
     2d2:	8f 3f       	cpi	r24, 0xFF	; 255
     2d4:	91 05       	cpc	r25, r1
     2d6:	a1 05       	cpc	r26, r1
     2d8:	b1 05       	cpc	r27, r1
     2da:	39 f1       	breq	.+78     	; 0x32a <_ZN15OrangutanAnalog16conversionResultEv+0xbc>
     2dc:	30 f1       	brcs	.+76     	; 0x32a <_ZN15OrangutanAnalog16conversionResultEv+0xbc>
     2de:	2f ef       	ldi	r18, 0xFF	; 255
     2e0:	30 e0       	ldi	r19, 0x00	; 0
     2e2:	32 c0       	rjmp	.+100    	; 0x348 <_ZN15OrangutanAnalog16conversionResultEv+0xda>
     2e4:	7e 01       	movw	r14, r28
     2e6:	f6 94       	lsr	r15
     2e8:	e7 94       	ror	r14
     2ea:	00 e0       	ldi	r16, 0x00	; 0
     2ec:	10 e0       	ldi	r17, 0x00	; 0
     2ee:	2f ef       	ldi	r18, 0xFF	; 255
     2f0:	33 e0       	ldi	r19, 0x03	; 3
     2f2:	40 e0       	ldi	r20, 0x00	; 0
     2f4:	50 e0       	ldi	r21, 0x00	; 0
     2f6:	0e 94 59 0f 	call	0x1eb2	; 0x1eb2 <__mulsi3>
     2fa:	e6 0e       	add	r14, r22
     2fc:	f7 1e       	adc	r15, r23
     2fe:	08 1f       	adc	r16, r24
     300:	19 1f       	adc	r17, r25
     302:	9e 01       	movw	r18, r28
     304:	40 e0       	ldi	r20, 0x00	; 0
     306:	50 e0       	ldi	r21, 0x00	; 0
     308:	c8 01       	movw	r24, r16
     30a:	b7 01       	movw	r22, r14
     30c:	0e 94 9f 0f 	call	0x1f3e	; 0x1f3e <__udivmodsi4>
     310:	c9 01       	movw	r24, r18
     312:	da 01       	movw	r26, r20
     314:	80 30       	cpi	r24, 0x00	; 0
     316:	20 e0       	ldi	r18, 0x00	; 0
     318:	92 07       	cpc	r25, r18
     31a:	21 e0       	ldi	r18, 0x01	; 1
     31c:	a2 07       	cpc	r26, r18
     31e:	20 e0       	ldi	r18, 0x00	; 0
     320:	b2 07       	cpc	r27, r18
     322:	18 f0       	brcs	.+6      	; 0x32a <_ZN15OrangutanAnalog16conversionResultEv+0xbc>
     324:	2f ef       	ldi	r18, 0xFF	; 255
     326:	3f ef       	ldi	r19, 0xFF	; 255
     328:	0f c0       	rjmp	.+30     	; 0x348 <_ZN15OrangutanAnalog16conversionResultEv+0xda>
     32a:	9c 01       	movw	r18, r24
     32c:	0d c0       	rjmp	.+26     	; 0x348 <_ZN15OrangutanAnalog16conversionResultEv+0xda>
     32e:	80 91 7c 00 	lds	r24, 0x007C
     332:	85 ff       	sbrs	r24, 5
     334:	05 c0       	rjmp	.+10     	; 0x340 <_ZN15OrangutanAnalog16conversionResultEv+0xd2>
     336:	80 91 79 00 	lds	r24, 0x0079
     33a:	28 2f       	mov	r18, r24
     33c:	30 e0       	ldi	r19, 0x00	; 0
     33e:	04 c0       	rjmp	.+8      	; 0x348 <_ZN15OrangutanAnalog16conversionResultEv+0xda>
     340:	20 91 78 00 	lds	r18, 0x0078
     344:	30 91 79 00 	lds	r19, 0x0079
     348:	c9 01       	movw	r24, r18
     34a:	cd b7       	in	r28, 0x3d	; 61
     34c:	de b7       	in	r29, 0x3e	; 62
     34e:	e6 e0       	ldi	r30, 0x06	; 6
     350:	0c 94 e9 0f 	jmp	0x1fd2	; 0x1fd2 <__epilogue_restores__+0x18>

00000354 <analog_conversion_result>:
     354:	0e 94 37 01 	call	0x26e	; 0x26e <_ZN15OrangutanAnalog16conversionResultEv>
     358:	08 95       	ret

0000035a <_ZN15OrangutanAnalog23setMillivoltCalibrationEj>:
     35a:	90 93 01 01 	sts	0x0101, r25
     35e:	80 93 00 01 	sts	0x0100, r24
     362:	08 95       	ret

00000364 <_ZN15OrangutanAnalog12toMillivoltsEj>:
     364:	a0 e0       	ldi	r26, 0x00	; 0
     366:	b0 e0       	ldi	r27, 0x00	; 0
     368:	20 91 00 01 	lds	r18, 0x0100
     36c:	30 91 01 01 	lds	r19, 0x0101
     370:	40 e0       	ldi	r20, 0x00	; 0
     372:	50 e0       	ldi	r21, 0x00	; 0
     374:	bc 01       	movw	r22, r24
     376:	cd 01       	movw	r24, r26
     378:	0e 94 59 0f 	call	0x1eb2	; 0x1eb2 <__mulsi3>
     37c:	9b 01       	movw	r18, r22
     37e:	ac 01       	movw	r20, r24
     380:	80 91 7c 00 	lds	r24, 0x007C
     384:	85 ff       	sbrs	r24, 5
     386:	0b c0       	rjmp	.+22     	; 0x39e <_ZN15OrangutanAnalog12toMillivoltsEj+0x3a>
     388:	b9 01       	movw	r22, r18
     38a:	ca 01       	movw	r24, r20
     38c:	61 58       	subi	r22, 0x81	; 129
     38e:	7f 4f       	sbci	r23, 0xFF	; 255
     390:	8f 4f       	sbci	r24, 0xFF	; 255
     392:	9f 4f       	sbci	r25, 0xFF	; 255
     394:	2f ef       	ldi	r18, 0xFF	; 255
     396:	30 e0       	ldi	r19, 0x00	; 0
     398:	40 e0       	ldi	r20, 0x00	; 0
     39a:	50 e0       	ldi	r21, 0x00	; 0
     39c:	0a c0       	rjmp	.+20     	; 0x3b2 <_ZN15OrangutanAnalog12toMillivoltsEj+0x4e>
     39e:	b9 01       	movw	r22, r18
     3a0:	ca 01       	movw	r24, r20
     3a2:	61 50       	subi	r22, 0x01	; 1
     3a4:	7e 4f       	sbci	r23, 0xFE	; 254
     3a6:	8f 4f       	sbci	r24, 0xFF	; 255
     3a8:	9f 4f       	sbci	r25, 0xFF	; 255
     3aa:	2f ef       	ldi	r18, 0xFF	; 255
     3ac:	33 e0       	ldi	r19, 0x03	; 3
     3ae:	40 e0       	ldi	r20, 0x00	; 0
     3b0:	50 e0       	ldi	r21, 0x00	; 0
     3b2:	0e 94 9f 0f 	call	0x1f3e	; 0x1f3e <__udivmodsi4>
     3b6:	c9 01       	movw	r24, r18
     3b8:	08 95       	ret

000003ba <_ZN15OrangutanAnalog26conversionResultMillivoltsEv>:
     3ba:	80 91 30 01 	lds	r24, 0x0130
     3be:	88 23       	and	r24, r24
     3c0:	29 f0       	breq	.+10     	; 0x3cc <_ZN15OrangutanAnalog26conversionResultMillivoltsEv+0x12>
     3c2:	80 91 31 01 	lds	r24, 0x0131
     3c6:	90 91 32 01 	lds	r25, 0x0132
     3ca:	08 95       	ret
     3cc:	80 91 7c 00 	lds	r24, 0x007C
     3d0:	85 ff       	sbrs	r24, 5
     3d2:	06 c0       	rjmp	.+12     	; 0x3e0 <_ZN15OrangutanAnalog26conversionResultMillivoltsEv+0x26>
     3d4:	80 91 79 00 	lds	r24, 0x0079
     3d8:	90 e0       	ldi	r25, 0x00	; 0
     3da:	0e 94 b2 01 	call	0x364	; 0x364 <_ZN15OrangutanAnalog12toMillivoltsEj>
     3de:	08 95       	ret
     3e0:	80 91 78 00 	lds	r24, 0x0078
     3e4:	90 91 79 00 	lds	r25, 0x0079
     3e8:	0e 94 b2 01 	call	0x364	; 0x364 <_ZN15OrangutanAnalog12toMillivoltsEj>
     3ec:	08 95       	ret

000003ee <analog_conversion_result_millivolts>:
     3ee:	0e 94 dd 01 	call	0x3ba	; 0x3ba <_ZN15OrangutanAnalog26conversionResultMillivoltsEv>
     3f2:	08 95       	ret

000003f4 <to_millivolts>:
     3f4:	0e 94 b2 01 	call	0x364	; 0x364 <_ZN15OrangutanAnalog12toMillivoltsEj>
     3f8:	08 95       	ret

000003fa <read_trimpot_millivolts>:
     3fa:	0e 94 35 0e 	call	0x1c6a	; 0x1c6a <_ZN12OrangutanSVP20getTrimpotMillivoltsEv>
     3fe:	08 95       	ret

00000400 <_ZN15OrangutanAnalog15startConversionEhh>:
     400:	98 2f       	mov	r25, r24
     402:	80 32       	cpi	r24, 0x20	; 32
     404:	00 f1       	brcs	.+64     	; 0x446 <_ZN15OrangutanAnalog15startConversionEhh+0x46>
     406:	81 e0       	ldi	r24, 0x01	; 1
     408:	80 93 30 01 	sts	0x0130, r24
     40c:	90 38       	cpi	r25, 0x80	; 128
     40e:	19 f4       	brne	.+6      	; 0x416 <_ZN15OrangutanAnalog15startConversionEhh+0x16>
     410:	0e 94 35 0e 	call	0x1c6a	; 0x1c6a <_ZN12OrangutanSVP20getTrimpotMillivoltsEv>
     414:	13 c0       	rjmp	.+38     	; 0x43c <_ZN15OrangutanAnalog15startConversionEhh+0x3c>
     416:	91 38       	cpi	r25, 0x81	; 129
     418:	19 f4       	brne	.+6      	; 0x420 <_ZN15OrangutanAnalog15startConversionEhh+0x20>
     41a:	0e 94 27 0e 	call	0x1c4e	; 0x1c4e <_ZN12OrangutanSVP21getChannelAMillivoltsEv>
     41e:	0e c0       	rjmp	.+28     	; 0x43c <_ZN15OrangutanAnalog15startConversionEhh+0x3c>
     420:	92 38       	cpi	r25, 0x82	; 130
     422:	19 f4       	brne	.+6      	; 0x42a <_ZN15OrangutanAnalog15startConversionEhh+0x2a>
     424:	0e 94 20 0e 	call	0x1c40	; 0x1c40 <_ZN12OrangutanSVP21getChannelBMillivoltsEv>
     428:	09 c0       	rjmp	.+18     	; 0x43c <_ZN15OrangutanAnalog15startConversionEhh+0x3c>
     42a:	93 38       	cpi	r25, 0x83	; 131
     42c:	19 f4       	brne	.+6      	; 0x434 <_ZN15OrangutanAnalog15startConversionEhh+0x34>
     42e:	0e 94 19 0e 	call	0x1c32	; 0x1c32 <_ZN12OrangutanSVP21getChannelCMillivoltsEv>
     432:	04 c0       	rjmp	.+8      	; 0x43c <_ZN15OrangutanAnalog15startConversionEhh+0x3c>
     434:	94 38       	cpi	r25, 0x84	; 132
     436:	f9 f4       	brne	.+62     	; 0x476 <_ZN15OrangutanAnalog15startConversionEhh+0x76>
     438:	0e 94 12 0e 	call	0x1c24	; 0x1c24 <_ZN12OrangutanSVP21getChannelDMillivoltsEv>
     43c:	90 93 32 01 	sts	0x0132, r25
     440:	80 93 31 01 	sts	0x0131, r24
     444:	08 95       	ret
     446:	10 92 30 01 	sts	0x0130, r1
     44a:	87 e8       	ldi	r24, 0x87	; 135
     44c:	80 93 7a 00 	sts	0x007A, r24
     450:	80 91 7c 00 	lds	r24, 0x007C
     454:	28 2f       	mov	r18, r24
     456:	20 64       	ori	r18, 0x40	; 64
     458:	66 23       	and	r22, r22
     45a:	11 f0       	breq	.+4      	; 0x460 <_ZN15OrangutanAnalog15startConversionEhh+0x60>
     45c:	80 6c       	ori	r24, 0xC0	; 192
     45e:	02 c0       	rjmp	.+4      	; 0x464 <_ZN15OrangutanAnalog15startConversionEhh+0x64>
     460:	82 2f       	mov	r24, r18
     462:	8f 77       	andi	r24, 0x7F	; 127
     464:	80 7e       	andi	r24, 0xE0	; 224
     466:	89 2b       	or	r24, r25
     468:	80 93 7c 00 	sts	0x007C, r24
     46c:	80 91 7a 00 	lds	r24, 0x007A
     470:	80 64       	ori	r24, 0x40	; 64
     472:	80 93 7a 00 	sts	0x007A, r24
     476:	08 95       	ret

00000478 <_ZN15OrangutanAnalog14readMillivoltsEh>:
     478:	60 e0       	ldi	r22, 0x00	; 0
     47a:	0e 94 00 02 	call	0x400	; 0x400 <_ZN15OrangutanAnalog15startConversionEhh>
     47e:	80 91 7a 00 	lds	r24, 0x007A
     482:	86 fd       	sbrc	r24, 6
     484:	fc cf       	rjmp	.-8      	; 0x47e <_ZN15OrangutanAnalog14readMillivoltsEh+0x6>
     486:	0e 94 dd 01 	call	0x3ba	; 0x3ba <_ZN15OrangutanAnalog26conversionResultMillivoltsEv>
     48a:	08 95       	ret

0000048c <analog_read_millivolts>:
     48c:	0e 94 3c 02 	call	0x478	; 0x478 <_ZN15OrangutanAnalog14readMillivoltsEh>
     490:	08 95       	ret

00000492 <_ZN15OrangutanAnalog4readEh>:
     492:	60 e0       	ldi	r22, 0x00	; 0
     494:	0e 94 00 02 	call	0x400	; 0x400 <_ZN15OrangutanAnalog15startConversionEhh>
     498:	80 91 7a 00 	lds	r24, 0x007A
     49c:	86 fd       	sbrc	r24, 6
     49e:	fc cf       	rjmp	.-8      	; 0x498 <_ZN15OrangutanAnalog4readEh+0x6>
     4a0:	0e 94 37 01 	call	0x26e	; 0x26e <_ZN15OrangutanAnalog16conversionResultEv>
     4a4:	08 95       	ret

000004a6 <analog_read>:
     4a6:	0e 94 49 02 	call	0x492	; 0x492 <_ZN15OrangutanAnalog4readEh>
     4aa:	08 95       	ret

000004ac <_ZN15OrangutanAnalog11readAverageEhj>:
     4ac:	a0 e0       	ldi	r26, 0x00	; 0
     4ae:	b0 e0       	ldi	r27, 0x00	; 0
     4b0:	ec e5       	ldi	r30, 0x5C	; 92
     4b2:	f2 e0       	ldi	r31, 0x02	; 2
     4b4:	0c 94 cb 0f 	jmp	0x1f96	; 0x1f96 <__prologue_saves__+0x14>
     4b8:	6b 01       	movw	r12, r22
     4ba:	80 32       	cpi	r24, 0x20	; 32
     4bc:	20 f0       	brcs	.+8      	; 0x4c6 <_ZN15OrangutanAnalog11readAverageEhj+0x1a>
     4be:	0e 94 49 02 	call	0x492	; 0x492 <_ZN15OrangutanAnalog4readEh>
     4c2:	9c 01       	movw	r18, r24
     4c4:	3a c0       	rjmp	.+116    	; 0x53a <_ZN15OrangutanAnalog11readAverageEhj+0x8e>
     4c6:	60 e0       	ldi	r22, 0x00	; 0
     4c8:	0e 94 00 02 	call	0x400	; 0x400 <_ZN15OrangutanAnalog15startConversionEhh>
     4cc:	80 91 7a 00 	lds	r24, 0x007A
     4d0:	86 fd       	sbrc	r24, 6
     4d2:	fc cf       	rjmp	.-8      	; 0x4cc <_ZN15OrangutanAnalog11readAverageEhj+0x20>
     4d4:	e6 01       	movw	r28, r12
     4d6:	ee 24       	eor	r14, r14
     4d8:	ff 24       	eor	r15, r15
     4da:	87 01       	movw	r16, r14
     4dc:	80 91 7a 00 	lds	r24, 0x007A
     4e0:	80 64       	ori	r24, 0x40	; 64
     4e2:	80 93 7a 00 	sts	0x007A, r24
     4e6:	80 91 7a 00 	lds	r24, 0x007A
     4ea:	86 fd       	sbrc	r24, 6
     4ec:	fc cf       	rjmp	.-8      	; 0x4e6 <_ZN15OrangutanAnalog11readAverageEhj+0x3a>
     4ee:	0e 94 37 01 	call	0x26e	; 0x26e <_ZN15OrangutanAnalog16conversionResultEv>
     4f2:	a0 e0       	ldi	r26, 0x00	; 0
     4f4:	b0 e0       	ldi	r27, 0x00	; 0
     4f6:	e8 0e       	add	r14, r24
     4f8:	f9 1e       	adc	r15, r25
     4fa:	0a 1f       	adc	r16, r26
     4fc:	1b 1f       	adc	r17, r27
     4fe:	21 97       	sbiw	r28, 0x01	; 1
     500:	69 f7       	brne	.-38     	; 0x4dc <_ZN15OrangutanAnalog11readAverageEhj+0x30>
     502:	c6 01       	movw	r24, r12
     504:	96 95       	lsr	r25
     506:	87 95       	ror	r24
     508:	20 e4       	ldi	r18, 0x40	; 64
     50a:	c2 16       	cp	r12, r18
     50c:	d1 04       	cpc	r13, r1
     50e:	40 f4       	brcc	.+16     	; 0x520 <_ZN15OrangutanAnalog11readAverageEhj+0x74>
     510:	8e 0d       	add	r24, r14
     512:	9f 1d       	adc	r25, r15
     514:	6c 2d       	mov	r22, r12
     516:	70 e0       	ldi	r23, 0x00	; 0
     518:	0e 94 78 0f 	call	0x1ef0	; 0x1ef0 <__udivmodhi4>
     51c:	9b 01       	movw	r18, r22
     51e:	0d c0       	rjmp	.+26     	; 0x53a <_ZN15OrangutanAnalog11readAverageEhj+0x8e>
     520:	a0 e0       	ldi	r26, 0x00	; 0
     522:	b0 e0       	ldi	r27, 0x00	; 0
     524:	e8 0e       	add	r14, r24
     526:	f9 1e       	adc	r15, r25
     528:	0a 1f       	adc	r16, r26
     52a:	1b 1f       	adc	r17, r27
     52c:	96 01       	movw	r18, r12
     52e:	40 e0       	ldi	r20, 0x00	; 0
     530:	50 e0       	ldi	r21, 0x00	; 0
     532:	c8 01       	movw	r24, r16
     534:	b7 01       	movw	r22, r14
     536:	0e 94 9f 0f 	call	0x1f3e	; 0x1f3e <__udivmodsi4>
     53a:	c9 01       	movw	r24, r18
     53c:	cd b7       	in	r28, 0x3d	; 61
     53e:	de b7       	in	r29, 0x3e	; 62
     540:	e8 e0       	ldi	r30, 0x08	; 8
     542:	0c 94 e7 0f 	jmp	0x1fce	; 0x1fce <__epilogue_restores__+0x14>

00000546 <_ZN15OrangutanAnalog17readVCCMillivoltsEv>:
     546:	1f 93       	push	r17
     548:	10 91 7c 00 	lds	r17, 0x007C
     54c:	80 91 7c 00 	lds	r24, 0x007C
     550:	8f 7d       	andi	r24, 0xDF	; 223
     552:	80 93 7c 00 	sts	0x007C, r24
     556:	8e e1       	ldi	r24, 0x1E	; 30
     558:	64 e1       	ldi	r22, 0x14	; 20
     55a:	70 e0       	ldi	r23, 0x00	; 0
     55c:	0e 94 56 02 	call	0x4ac	; 0x4ac <_ZN15OrangutanAnalog11readAverageEhj>
     560:	8e e1       	ldi	r24, 0x1E	; 30
     562:	64 e1       	ldi	r22, 0x14	; 20
     564:	70 e0       	ldi	r23, 0x00	; 0
     566:	0e 94 56 02 	call	0x4ac	; 0x4ac <_ZN15OrangutanAnalog11readAverageEhj>
     56a:	9c 01       	movw	r18, r24
     56c:	15 fd       	sbrc	r17, 5
     56e:	04 c0       	rjmp	.+8      	; 0x578 <_ZN15OrangutanAnalog17readVCCMillivoltsEv+0x32>
     570:	80 91 7c 00 	lds	r24, 0x007C
     574:	8f 7d       	andi	r24, 0xDF	; 223
     576:	03 c0       	rjmp	.+6      	; 0x57e <_ZN15OrangutanAnalog17readVCCMillivoltsEv+0x38>
     578:	80 91 7c 00 	lds	r24, 0x007C
     57c:	80 62       	ori	r24, 0x20	; 32
     57e:	80 93 7c 00 	sts	0x007C, r24
     582:	b9 01       	movw	r22, r18
     584:	76 95       	lsr	r23
     586:	67 95       	ror	r22
     588:	80 e0       	ldi	r24, 0x00	; 0
     58a:	90 e0       	ldi	r25, 0x00	; 0
     58c:	6c 54       	subi	r22, 0x4C	; 76
     58e:	74 4d       	sbci	r23, 0xD4	; 212
     590:	8e 4e       	sbci	r24, 0xEE	; 238
     592:	9f 4f       	sbci	r25, 0xFF	; 255
     594:	40 e0       	ldi	r20, 0x00	; 0
     596:	50 e0       	ldi	r21, 0x00	; 0
     598:	0e 94 9f 0f 	call	0x1f3e	; 0x1f3e <__udivmodsi4>
     59c:	c9 01       	movw	r24, r18
     59e:	1f 91       	pop	r17
     5a0:	08 95       	ret

000005a2 <read_vcc_millivolts>:
     5a2:	0e 94 a3 02 	call	0x546	; 0x546 <_ZN15OrangutanAnalog17readVCCMillivoltsEv>
     5a6:	08 95       	ret

000005a8 <read_trimpot>:
     5a8:	80 e8       	ldi	r24, 0x80	; 128
     5aa:	64 e1       	ldi	r22, 0x14	; 20
     5ac:	70 e0       	ldi	r23, 0x00	; 0
     5ae:	0e 94 56 02 	call	0x4ac	; 0x4ac <_ZN15OrangutanAnalog11readAverageEhj>
     5b2:	08 95       	ret

000005b4 <analog_read_average_millivolts>:
     5b4:	80 32       	cpi	r24, 0x20	; 32
     5b6:	18 f0       	brcs	.+6      	; 0x5be <analog_read_average_millivolts+0xa>
     5b8:	0e 94 3c 02 	call	0x478	; 0x478 <_ZN15OrangutanAnalog14readMillivoltsEh>
     5bc:	08 95       	ret
     5be:	0e 94 56 02 	call	0x4ac	; 0x4ac <_ZN15OrangutanAnalog11readAverageEhj>
     5c2:	0e 94 b2 01 	call	0x364	; 0x364 <_ZN15OrangutanAnalog12toMillivoltsEj>
     5c6:	08 95       	ret

000005c8 <analog_read_average>:
     5c8:	0e 94 56 02 	call	0x4ac	; 0x4ac <_ZN15OrangutanAnalog11readAverageEhj>
     5cc:	08 95       	ret

000005ce <start_analog_conversion>:
     5ce:	60 e0       	ldi	r22, 0x00	; 0
     5d0:	0e 94 00 02 	call	0x400	; 0x400 <_ZN15OrangutanAnalog15startConversionEhh>
     5d4:	08 95       	ret

000005d6 <read_battery_millivolts_svp>:
     5d6:	0e 94 2e 0e 	call	0x1c5c	; 0x1c5c <_ZN12OrangutanSVP20getBatteryMillivoltsEv>
     5da:	08 95       	ret

000005dc <_ZN12OrangutanLCDC2Ev>:
     5dc:	08 95       	ret

000005de <_ZN12OrangutanLCDC1Ev>:
     5de:	08 95       	ret

000005e0 <void_getchar>:
     5e0:	80 e0       	ldi	r24, 0x00	; 0
     5e2:	90 e0       	ldi	r25, 0x00	; 0
     5e4:	08 95       	ret

000005e6 <_ZN12OrangutanLCD8busyWaitEv>:
     5e6:	ef 92       	push	r14
     5e8:	ff 92       	push	r15
     5ea:	0f 93       	push	r16
     5ec:	1f 93       	push	r17
     5ee:	67 b1       	in	r22, 0x07	; 7
     5f0:	3d 98       	cbi	0x07, 5	; 7
     5f2:	28 98       	cbi	0x05, 0	; 5
     5f4:	29 9a       	sbi	0x05, 1	; 5
     5f6:	e0 90 37 01 	lds	r14, 0x0137
     5fa:	f0 90 38 01 	lds	r15, 0x0138
     5fe:	00 91 39 01 	lds	r16, 0x0139
     602:	10 91 3a 01 	lds	r17, 0x013A
     606:	20 e0       	ldi	r18, 0x00	; 0
     608:	30 e0       	ldi	r19, 0x00	; 0
     60a:	41 e0       	ldi	r20, 0x01	; 1
     60c:	50 e0       	ldi	r21, 0x00	; 0
     60e:	ca 01       	movw	r24, r20
     610:	6f 93       	push	r22
     612:	64 e0       	ldi	r22, 0x04	; 4
     614:	6a 95       	dec	r22
     616:	f1 f7       	brne	.-4      	; 0x614 <_ZN12OrangutanLCD8busyWaitEv+0x2e>
     618:	6f 91       	pop	r22
     61a:	01 97       	sbiw	r24, 0x01	; 1
     61c:	c9 f7       	brne	.-14     	; 0x610 <_ZN12OrangutanLCD8busyWaitEv+0x2a>
     61e:	2a 9a       	sbi	0x05, 2	; 5
     620:	ca 01       	movw	r24, r20
     622:	6f 93       	push	r22
     624:	64 e0       	ldi	r22, 0x04	; 4
     626:	6a 95       	dec	r22
     628:	f1 f7       	brne	.-4      	; 0x626 <_ZN12OrangutanLCD8busyWaitEv+0x40>
     62a:	6f 91       	pop	r22
     62c:	01 97       	sbiw	r24, 0x01	; 1
     62e:	c9 f7       	brne	.-14     	; 0x622 <_ZN12OrangutanLCD8busyWaitEv+0x3c>
     630:	86 b1       	in	r24, 0x06	; 6
     632:	2a 98       	cbi	0x05, 2	; 5
     634:	fa 01       	movw	r30, r20
     636:	6f 93       	push	r22
     638:	64 e0       	ldi	r22, 0x04	; 4
     63a:	6a 95       	dec	r22
     63c:	f1 f7       	brne	.-4      	; 0x63a <_ZN12OrangutanLCD8busyWaitEv+0x54>
     63e:	6f 91       	pop	r22
     640:	31 97       	sbiw	r30, 0x01	; 1
     642:	c9 f7       	brne	.-14     	; 0x636 <_ZN12OrangutanLCD8busyWaitEv+0x50>
     644:	2a 9a       	sbi	0x05, 2	; 5
     646:	fa 01       	movw	r30, r20
     648:	6f 93       	push	r22
     64a:	64 e0       	ldi	r22, 0x04	; 4
     64c:	6a 95       	dec	r22
     64e:	f1 f7       	brne	.-4      	; 0x64c <_ZN12OrangutanLCD8busyWaitEv+0x66>
     650:	6f 91       	pop	r22
     652:	31 97       	sbiw	r30, 0x01	; 1
     654:	c9 f7       	brne	.-14     	; 0x648 <_ZN12OrangutanLCD8busyWaitEv+0x62>
     656:	2a 98       	cbi	0x05, 2	; 5
     658:	2c 5f       	subi	r18, 0xFC	; 252
     65a:	3f 4f       	sbci	r19, 0xFF	; 255
     65c:	85 ff       	sbrs	r24, 5
     65e:	09 c0       	rjmp	.+18     	; 0x672 <_ZN12OrangutanLCD8busyWaitEv+0x8c>
     660:	c9 01       	movw	r24, r18
     662:	a0 e0       	ldi	r26, 0x00	; 0
     664:	b0 e0       	ldi	r27, 0x00	; 0
     666:	8e 15       	cp	r24, r14
     668:	9f 05       	cpc	r25, r15
     66a:	a0 07       	cpc	r26, r16
     66c:	b1 07       	cpc	r27, r17
     66e:	08 f4       	brcc	.+2      	; 0x672 <_ZN12OrangutanLCD8busyWaitEv+0x8c>
     670:	ce cf       	rjmp	.-100    	; 0x60e <_ZN12OrangutanLCD8busyWaitEv+0x28>
     672:	c9 01       	movw	r24, r18
     674:	a0 e0       	ldi	r26, 0x00	; 0
     676:	b0 e0       	ldi	r27, 0x00	; 0
     678:	8e 15       	cp	r24, r14
     67a:	9f 05       	cpc	r25, r15
     67c:	a0 07       	cpc	r26, r16
     67e:	b1 07       	cpc	r27, r17
     680:	28 f0       	brcs	.+10     	; 0x68c <_ZN12OrangutanLCD8busyWaitEv+0xa6>
     682:	82 e3       	ldi	r24, 0x32	; 50
     684:	90 e0       	ldi	r25, 0x00	; 0
     686:	a0 e0       	ldi	r26, 0x00	; 0
     688:	b0 e0       	ldi	r27, 0x00	; 0
     68a:	04 c0       	rjmp	.+8      	; 0x694 <_ZN12OrangutanLCD8busyWaitEv+0xae>
     68c:	80 e3       	ldi	r24, 0x30	; 48
     68e:	95 e7       	ldi	r25, 0x75	; 117
     690:	a0 e0       	ldi	r26, 0x00	; 0
     692:	b0 e0       	ldi	r27, 0x00	; 0
     694:	80 93 37 01 	sts	0x0137, r24
     698:	90 93 38 01 	sts	0x0138, r25
     69c:	a0 93 39 01 	sts	0x0139, r26
     6a0:	b0 93 3a 01 	sts	0x013A, r27
     6a4:	67 b9       	out	0x07, r22	; 7
     6a6:	1f 91       	pop	r17
     6a8:	0f 91       	pop	r16
     6aa:	ff 90       	pop	r15
     6ac:	ef 90       	pop	r14
     6ae:	08 95       	ret

000006b0 <_ZN12OrangutanLCD8sendDataEh>:
     6b0:	28 b1       	in	r18, 0x08	; 8
     6b2:	90 e0       	ldi	r25, 0x00	; 0
     6b4:	8f 70       	andi	r24, 0x0F	; 15
     6b6:	90 70       	andi	r25, 0x00	; 0
     6b8:	88 0f       	add	r24, r24
     6ba:	99 1f       	adc	r25, r25
     6bc:	88 0f       	add	r24, r24
     6be:	99 1f       	adc	r25, r25
     6c0:	23 7c       	andi	r18, 0xC3	; 195
     6c2:	28 2b       	or	r18, r24
     6c4:	28 b9       	out	0x08, r18	; 8
     6c6:	2a 9a       	sbi	0x05, 2	; 5
     6c8:	81 e0       	ldi	r24, 0x01	; 1
     6ca:	90 e0       	ldi	r25, 0x00	; 0
     6cc:	fc 01       	movw	r30, r24
     6ce:	6f 93       	push	r22
     6d0:	64 e0       	ldi	r22, 0x04	; 4
     6d2:	6a 95       	dec	r22
     6d4:	f1 f7       	brne	.-4      	; 0x6d2 <_ZN12OrangutanLCD8sendDataEh+0x22>
     6d6:	6f 91       	pop	r22
     6d8:	31 97       	sbiw	r30, 0x01	; 1
     6da:	c9 f7       	brne	.-14     	; 0x6ce <_ZN12OrangutanLCD8sendDataEh+0x1e>
     6dc:	2a 98       	cbi	0x05, 2	; 5
     6de:	6f 93       	push	r22
     6e0:	64 e0       	ldi	r22, 0x04	; 4
     6e2:	6a 95       	dec	r22
     6e4:	f1 f7       	brne	.-4      	; 0x6e2 <_ZN12OrangutanLCD8sendDataEh+0x32>
     6e6:	6f 91       	pop	r22
     6e8:	01 97       	sbiw	r24, 0x01	; 1
     6ea:	c9 f7       	brne	.-14     	; 0x6de <_ZN12OrangutanLCD8sendDataEh+0x2e>
     6ec:	08 95       	ret

000006ee <_ZN12OrangutanLCD10initPrintfEv>:
     6ee:	80 91 33 01 	lds	r24, 0x0133
     6f2:	90 91 34 01 	lds	r25, 0x0134
     6f6:	00 97       	sbiw	r24, 0x00	; 0
     6f8:	11 f0       	breq	.+4      	; 0x6fe <_ZN12OrangutanLCD10initPrintfEv+0x10>
     6fa:	0e 94 a5 10 	call	0x214a	; 0x214a <free>
     6fe:	80 91 02 01 	lds	r24, 0x0102
     702:	90 e0       	ldi	r25, 0x00	; 0
     704:	01 97       	sbiw	r24, 0x01	; 1
     706:	20 91 03 01 	lds	r18, 0x0103
     70a:	30 e0       	ldi	r19, 0x00	; 0
     70c:	ac 01       	movw	r20, r24
     70e:	42 9f       	mul	r20, r18
     710:	c0 01       	movw	r24, r0
     712:	43 9f       	mul	r20, r19
     714:	90 0d       	add	r25, r0
     716:	52 9f       	mul	r21, r18
     718:	90 0d       	add	r25, r0
     71a:	11 24       	eor	r1, r1
     71c:	0e 94 f8 0f 	call	0x1ff0	; 0x1ff0 <malloc>
     720:	90 93 34 01 	sts	0x0134, r25
     724:	80 93 33 01 	sts	0x0133, r24
     728:	00 97       	sbiw	r24, 0x00	; 0
     72a:	29 f1       	breq	.+74     	; 0x776 <_ZN12OrangutanLCD10initPrintfEv+0x88>
     72c:	60 e0       	ldi	r22, 0x00	; 0
     72e:	70 e2       	ldi	r23, 0x20	; 32
     730:	08 c0       	rjmp	.+16     	; 0x742 <_ZN12OrangutanLCD10initPrintfEv+0x54>
     732:	e0 91 33 01 	lds	r30, 0x0133
     736:	f0 91 34 01 	lds	r31, 0x0134
     73a:	e4 0f       	add	r30, r20
     73c:	f5 1f       	adc	r31, r21
     73e:	70 83       	st	Z, r23
     740:	6f 5f       	subi	r22, 0xFF	; 255
     742:	46 2f       	mov	r20, r22
     744:	50 e0       	ldi	r21, 0x00	; 0
     746:	80 91 02 01 	lds	r24, 0x0102
     74a:	90 e0       	ldi	r25, 0x00	; 0
     74c:	01 97       	sbiw	r24, 0x01	; 1
     74e:	20 91 03 01 	lds	r18, 0x0103
     752:	30 e0       	ldi	r19, 0x00	; 0
     754:	fc 01       	movw	r30, r24
     756:	e2 9f       	mul	r30, r18
     758:	c0 01       	movw	r24, r0
     75a:	e3 9f       	mul	r30, r19
     75c:	90 0d       	add	r25, r0
     75e:	f2 9f       	mul	r31, r18
     760:	90 0d       	add	r25, r0
     762:	11 24       	eor	r1, r1
     764:	48 17       	cp	r20, r24
     766:	59 07       	cpc	r21, r25
     768:	24 f3       	brlt	.-56     	; 0x732 <_ZN12OrangutanLCD10initPrintfEv+0x44>
     76a:	8c ed       	ldi	r24, 0xDC	; 220
     76c:	95 e0       	ldi	r25, 0x05	; 5
     76e:	60 ef       	ldi	r22, 0xF0	; 240
     770:	72 e0       	ldi	r23, 0x02	; 2
     772:	0e 94 fd 10 	call	0x21fa	; 0x21fa <fdevopen>
     776:	08 95       	ret

00000778 <_ZN12OrangutanLCD10initPrintfEhh>:
     778:	80 93 03 01 	sts	0x0103, r24
     77c:	60 93 02 01 	sts	0x0102, r22
     780:	0e 94 77 03 	call	0x6ee	; 0x6ee <_ZN12OrangutanLCD10initPrintfEv>
     784:	08 95       	ret

00000786 <lcd_init_printf_with_dimensions>:
     786:	80 93 03 01 	sts	0x0103, r24
     78a:	60 93 02 01 	sts	0x0102, r22
     78e:	0e 94 77 03 	call	0x6ee	; 0x6ee <_ZN12OrangutanLCD10initPrintfEv>
     792:	08 95       	ret

00000794 <lcd_init_printf>:
     794:	0e 94 77 03 	call	0x6ee	; 0x6ee <_ZN12OrangutanLCD10initPrintfEv>
     798:	08 95       	ret

0000079a <_ZN12OrangutanLCD5init2Ev>:
     79a:	3d 98       	cbi	0x07, 5	; 7
     79c:	45 9a       	sbi	0x08, 5	; 8
     79e:	80 e3       	ldi	r24, 0x30	; 48
     7a0:	95 e7       	ldi	r25, 0x75	; 117
     7a2:	a0 e0       	ldi	r26, 0x00	; 0
     7a4:	b0 e0       	ldi	r27, 0x00	; 0
     7a6:	80 93 37 01 	sts	0x0137, r24
     7aa:	90 93 38 01 	sts	0x0138, r25
     7ae:	a0 93 39 01 	sts	0x0139, r26
     7b2:	b0 93 3a 01 	sts	0x013A, r27
     7b6:	20 9a       	sbi	0x04, 0	; 4
     7b8:	21 9a       	sbi	0x04, 1	; 4
     7ba:	22 9a       	sbi	0x04, 2	; 4
     7bc:	8e e1       	ldi	r24, 0x1E	; 30
     7be:	90 e0       	ldi	r25, 0x00	; 0
     7c0:	0e 94 1f 0d 	call	0x1a3e	; 0x1a3e <_ZN13OrangutanTime17delayMillisecondsEj>
     7c4:	83 e0       	ldi	r24, 0x03	; 3
     7c6:	0e 94 22 07 	call	0xe44	; 0xe44 <_ZN12OrangutanLCD13send_4bit_cmdEh>
     7ca:	86 e0       	ldi	r24, 0x06	; 6
     7cc:	90 e0       	ldi	r25, 0x00	; 0
     7ce:	0e 94 1f 0d 	call	0x1a3e	; 0x1a3e <_ZN13OrangutanTime17delayMillisecondsEj>
     7d2:	83 e0       	ldi	r24, 0x03	; 3
     7d4:	0e 94 22 07 	call	0xe44	; 0xe44 <_ZN12OrangutanLCD13send_4bit_cmdEh>
     7d8:	82 e0       	ldi	r24, 0x02	; 2
     7da:	90 e0       	ldi	r25, 0x00	; 0
     7dc:	0e 94 1f 0d 	call	0x1a3e	; 0x1a3e <_ZN13OrangutanTime17delayMillisecondsEj>
     7e0:	83 e0       	ldi	r24, 0x03	; 3
     7e2:	0e 94 22 07 	call	0xe44	; 0xe44 <_ZN12OrangutanLCD13send_4bit_cmdEh>
     7e6:	82 e0       	ldi	r24, 0x02	; 2
     7e8:	90 e0       	ldi	r25, 0x00	; 0
     7ea:	0e 94 1f 0d 	call	0x1a3e	; 0x1a3e <_ZN13OrangutanTime17delayMillisecondsEj>
     7ee:	82 e0       	ldi	r24, 0x02	; 2
     7f0:	0e 94 22 07 	call	0xe44	; 0xe44 <_ZN12OrangutanLCD13send_4bit_cmdEh>
     7f4:	82 e0       	ldi	r24, 0x02	; 2
     7f6:	90 e0       	ldi	r25, 0x00	; 0
     7f8:	0e 94 1f 0d 	call	0x1a3e	; 0x1a3e <_ZN13OrangutanTime17delayMillisecondsEj>
     7fc:	88 e2       	ldi	r24, 0x28	; 40
     7fe:	0e 94 6c 04 	call	0x8d8	; 0x8d8 <_ZN12OrangutanLCD8send_cmdEh>
     802:	88 e0       	ldi	r24, 0x08	; 8
     804:	0e 94 6c 04 	call	0x8d8	; 0x8d8 <_ZN12OrangutanLCD8send_cmdEh>
     808:	81 e0       	ldi	r24, 0x01	; 1
     80a:	0e 94 6c 04 	call	0x8d8	; 0x8d8 <_ZN12OrangutanLCD8send_cmdEh>
     80e:	86 e0       	ldi	r24, 0x06	; 6
     810:	0e 94 6c 04 	call	0x8d8	; 0x8d8 <_ZN12OrangutanLCD8send_cmdEh>
     814:	8c e0       	ldi	r24, 0x0C	; 12
     816:	0e 94 6c 04 	call	0x8d8	; 0x8d8 <_ZN12OrangutanLCD8send_cmdEh>
     81a:	08 95       	ret

0000081c <_ZN12OrangutanLCD4initEv>:
     81c:	80 91 3b 01 	lds	r24, 0x013B
     820:	88 23       	and	r24, r24
     822:	29 f4       	brne	.+10     	; 0x82e <_ZN12OrangutanLCD4initEv+0x12>
     824:	81 e0       	ldi	r24, 0x01	; 1
     826:	80 93 3b 01 	sts	0x013B, r24
     82a:	0e 94 cd 03 	call	0x79a	; 0x79a <_ZN12OrangutanLCD5init2Ev>
     82e:	08 95       	ret

00000830 <_ZN12OrangutanLCD4sendEhhh>:
     830:	ff 92       	push	r15
     832:	0f 93       	push	r16
     834:	1f 93       	push	r17
     836:	08 2f       	mov	r16, r24
     838:	16 2f       	mov	r17, r22
     83a:	f4 2e       	mov	r15, r20
     83c:	0e 94 0e 04 	call	0x81c	; 0x81c <_ZN12OrangutanLCD4initEv>
     840:	0e 94 f3 02 	call	0x5e6	; 0x5e6 <_ZN12OrangutanLCD8busyWaitEv>
     844:	37 b1       	in	r19, 0x07	; 7
     846:	28 b1       	in	r18, 0x08	; 8
     848:	29 98       	cbi	0x05, 1	; 5
     84a:	11 23       	and	r17, r17
     84c:	11 f0       	breq	.+4      	; 0x852 <_ZN12OrangutanLCD4sendEhhh+0x22>
     84e:	28 9a       	sbi	0x05, 0	; 5
     850:	01 c0       	rjmp	.+2      	; 0x854 <_ZN12OrangutanLCD4sendEhhh+0x24>
     852:	28 98       	cbi	0x05, 0	; 5
     854:	87 b1       	in	r24, 0x07	; 7
     856:	8c 63       	ori	r24, 0x3C	; 60
     858:	87 b9       	out	0x07, r24	; 7
     85a:	81 e0       	ldi	r24, 0x01	; 1
     85c:	f8 16       	cp	r15, r24
     85e:	e1 f0       	breq	.+56     	; 0x898 <_ZN12OrangutanLCD4sendEhhh+0x68>
     860:	88 b1       	in	r24, 0x08	; 8
     862:	90 2f       	mov	r25, r16
     864:	92 95       	swap	r25
     866:	9f 70       	andi	r25, 0x0F	; 15
     868:	99 0f       	add	r25, r25
     86a:	99 0f       	add	r25, r25
     86c:	83 7c       	andi	r24, 0xC3	; 195
     86e:	98 2b       	or	r25, r24
     870:	98 b9       	out	0x08, r25	; 8
     872:	2a 9a       	sbi	0x05, 2	; 5
     874:	81 e0       	ldi	r24, 0x01	; 1
     876:	90 e0       	ldi	r25, 0x00	; 0
     878:	fc 01       	movw	r30, r24
     87a:	6f 93       	push	r22
     87c:	64 e0       	ldi	r22, 0x04	; 4
     87e:	6a 95       	dec	r22
     880:	f1 f7       	brne	.-4      	; 0x87e <_ZN12OrangutanLCD4sendEhhh+0x4e>
     882:	6f 91       	pop	r22
     884:	31 97       	sbiw	r30, 0x01	; 1
     886:	c9 f7       	brne	.-14     	; 0x87a <_ZN12OrangutanLCD4sendEhhh+0x4a>
     888:	2a 98       	cbi	0x05, 2	; 5
     88a:	6f 93       	push	r22
     88c:	64 e0       	ldi	r22, 0x04	; 4
     88e:	6a 95       	dec	r22
     890:	f1 f7       	brne	.-4      	; 0x88e <_ZN12OrangutanLCD4sendEhhh+0x5e>
     892:	6f 91       	pop	r22
     894:	01 97       	sbiw	r24, 0x01	; 1
     896:	c9 f7       	brne	.-14     	; 0x88a <_ZN12OrangutanLCD4sendEhhh+0x5a>
     898:	88 b1       	in	r24, 0x08	; 8
     89a:	0f 70       	andi	r16, 0x0F	; 15
     89c:	00 0f       	add	r16, r16
     89e:	00 0f       	add	r16, r16
     8a0:	83 7c       	andi	r24, 0xC3	; 195
     8a2:	80 2b       	or	r24, r16
     8a4:	88 b9       	out	0x08, r24	; 8
     8a6:	2a 9a       	sbi	0x05, 2	; 5
     8a8:	81 e0       	ldi	r24, 0x01	; 1
     8aa:	90 e0       	ldi	r25, 0x00	; 0
     8ac:	fc 01       	movw	r30, r24
     8ae:	6f 93       	push	r22
     8b0:	64 e0       	ldi	r22, 0x04	; 4
     8b2:	6a 95       	dec	r22
     8b4:	f1 f7       	brne	.-4      	; 0x8b2 <_ZN12OrangutanLCD4sendEhhh+0x82>
     8b6:	6f 91       	pop	r22
     8b8:	31 97       	sbiw	r30, 0x01	; 1
     8ba:	c9 f7       	brne	.-14     	; 0x8ae <_ZN12OrangutanLCD4sendEhhh+0x7e>
     8bc:	2a 98       	cbi	0x05, 2	; 5
     8be:	6f 93       	push	r22
     8c0:	64 e0       	ldi	r22, 0x04	; 4
     8c2:	6a 95       	dec	r22
     8c4:	f1 f7       	brne	.-4      	; 0x8c2 <_ZN12OrangutanLCD4sendEhhh+0x92>
     8c6:	6f 91       	pop	r22
     8c8:	01 97       	sbiw	r24, 0x01	; 1
     8ca:	c9 f7       	brne	.-14     	; 0x8be <_ZN12OrangutanLCD4sendEhhh+0x8e>
     8cc:	37 b9       	out	0x07, r19	; 7
     8ce:	28 b9       	out	0x08, r18	; 8
     8d0:	1f 91       	pop	r17
     8d2:	0f 91       	pop	r16
     8d4:	ff 90       	pop	r15
     8d6:	08 95       	ret

000008d8 <_ZN12OrangutanLCD8send_cmdEh>:
     8d8:	60 e0       	ldi	r22, 0x00	; 0
     8da:	42 e0       	ldi	r20, 0x02	; 2
     8dc:	0e 94 18 04 	call	0x830	; 0x830 <_ZN12OrangutanLCD4sendEhhh>
     8e0:	08 95       	ret

000008e2 <_ZN12OrangutanLCD10moveCursorEhh>:
     8e2:	0f 93       	push	r16
     8e4:	1f 93       	push	r17
     8e6:	08 2f       	mov	r16, r24
     8e8:	16 2f       	mov	r17, r22
     8ea:	08 c0       	rjmp	.+16     	; 0x8fc <_ZN12OrangutanLCD10moveCursorEhh+0x1a>
     8ec:	00 23       	and	r16, r16
     8ee:	11 f4       	brne	.+4      	; 0x8f4 <_ZN12OrangutanLCD10moveCursorEhh+0x12>
     8f0:	80 e1       	ldi	r24, 0x10	; 16
     8f2:	01 c0       	rjmp	.+2      	; 0x8f6 <_ZN12OrangutanLCD10moveCursorEhh+0x14>
     8f4:	84 e1       	ldi	r24, 0x14	; 20
     8f6:	0e 94 6c 04 	call	0x8d8	; 0x8d8 <_ZN12OrangutanLCD8send_cmdEh>
     8fa:	11 50       	subi	r17, 0x01	; 1
     8fc:	11 23       	and	r17, r17
     8fe:	b1 f7       	brne	.-20     	; 0x8ec <_ZN12OrangutanLCD10moveCursorEhh+0xa>
     900:	1f 91       	pop	r17
     902:	0f 91       	pop	r16
     904:	08 95       	ret

00000906 <lcd_move_cursor>:
     906:	0e 94 71 04 	call	0x8e2	; 0x8e2 <_ZN12OrangutanLCD10moveCursorEhh>
     90a:	08 95       	ret

0000090c <_ZN12OrangutanLCD10hideCursorEv>:
     90c:	8c e0       	ldi	r24, 0x0C	; 12
     90e:	0e 94 6c 04 	call	0x8d8	; 0x8d8 <_ZN12OrangutanLCD8send_cmdEh>
     912:	08 95       	ret

00000914 <lcd_hide_cursor>:
     914:	0e 94 86 04 	call	0x90c	; 0x90c <_ZN12OrangutanLCD10hideCursorEv>
     918:	08 95       	ret

0000091a <_ZN12OrangutanLCD10showCursorEh>:
     91a:	81 30       	cpi	r24, 0x01	; 1
     91c:	11 f4       	brne	.+4      	; 0x922 <_ZN12OrangutanLCD10showCursorEh+0x8>
     91e:	8f e0       	ldi	r24, 0x0F	; 15
     920:	01 c0       	rjmp	.+2      	; 0x924 <_ZN12OrangutanLCD10showCursorEh+0xa>
     922:	8e e0       	ldi	r24, 0x0E	; 14
     924:	0e 94 6c 04 	call	0x8d8	; 0x8d8 <_ZN12OrangutanLCD8send_cmdEh>
     928:	08 95       	ret

0000092a <lcd_show_cursor>:
     92a:	0e 94 8d 04 	call	0x91a	; 0x91a <_ZN12OrangutanLCD10showCursorEh>
     92e:	08 95       	ret

00000930 <_ZN12OrangutanLCD6gotoXYEhh>:
     930:	a4 e0       	ldi	r26, 0x04	; 4
     932:	b0 e0       	ldi	r27, 0x00	; 0
     934:	ee e9       	ldi	r30, 0x9E	; 158
     936:	f4 e0       	ldi	r31, 0x04	; 4
     938:	0c 94 cf 0f 	jmp	0x1f9e	; 0x1f9e <__prologue_saves__+0x1c>
     93c:	18 2f       	mov	r17, r24
     93e:	06 2f       	mov	r16, r22
     940:	80 e8       	ldi	r24, 0x80	; 128
     942:	89 83       	std	Y+1, r24	; 0x01
     944:	80 ec       	ldi	r24, 0xC0	; 192
     946:	8a 83       	std	Y+2, r24	; 0x02
     948:	84 e9       	ldi	r24, 0x94	; 148
     94a:	8b 83       	std	Y+3, r24	; 0x03
     94c:	84 ed       	ldi	r24, 0xD4	; 212
     94e:	8c 83       	std	Y+4, r24	; 0x04
     950:	fe 01       	movw	r30, r28
     952:	e6 0f       	add	r30, r22
     954:	f1 1d       	adc	r31, r1
     956:	81 81       	ldd	r24, Z+1	; 0x01
     958:	81 0f       	add	r24, r17
     95a:	0e 94 6c 04 	call	0x8d8	; 0x8d8 <_ZN12OrangutanLCD8send_cmdEh>
     95e:	10 93 36 01 	sts	0x0136, r17
     962:	00 93 35 01 	sts	0x0135, r16
     966:	24 96       	adiw	r28, 0x04	; 4
     968:	e4 e0       	ldi	r30, 0x04	; 4
     96a:	0c 94 eb 0f 	jmp	0x1fd6	; 0x1fd6 <__epilogue_restores__+0x1c>

0000096e <lcd_goto_xy>:
     96e:	0e 94 98 04 	call	0x930	; 0x930 <_ZN12OrangutanLCD6gotoXYEhh>
     972:	08 95       	ret

00000974 <_ZN12OrangutanLCD5clearEv>:
     974:	81 e0       	ldi	r24, 0x01	; 1
     976:	0e 94 6c 04 	call	0x8d8	; 0x8d8 <_ZN12OrangutanLCD8send_cmdEh>
     97a:	80 91 33 01 	lds	r24, 0x0133
     97e:	90 91 34 01 	lds	r25, 0x0134
     982:	89 2b       	or	r24, r25
     984:	19 f1       	breq	.+70     	; 0x9cc <_ZN12OrangutanLCD5clearEv+0x58>
     986:	60 e0       	ldi	r22, 0x00	; 0
     988:	70 e2       	ldi	r23, 0x20	; 32
     98a:	08 c0       	rjmp	.+16     	; 0x99c <_ZN12OrangutanLCD5clearEv+0x28>
     98c:	e0 91 33 01 	lds	r30, 0x0133
     990:	f0 91 34 01 	lds	r31, 0x0134
     994:	e4 0f       	add	r30, r20
     996:	f5 1f       	adc	r31, r21
     998:	70 83       	st	Z, r23
     99a:	6f 5f       	subi	r22, 0xFF	; 255
     99c:	46 2f       	mov	r20, r22
     99e:	50 e0       	ldi	r21, 0x00	; 0
     9a0:	80 91 02 01 	lds	r24, 0x0102
     9a4:	90 e0       	ldi	r25, 0x00	; 0
     9a6:	01 97       	sbiw	r24, 0x01	; 1
     9a8:	20 91 03 01 	lds	r18, 0x0103
     9ac:	30 e0       	ldi	r19, 0x00	; 0
     9ae:	fc 01       	movw	r30, r24
     9b0:	e2 9f       	mul	r30, r18
     9b2:	c0 01       	movw	r24, r0
     9b4:	e3 9f       	mul	r30, r19
     9b6:	90 0d       	add	r25, r0
     9b8:	f2 9f       	mul	r31, r18
     9ba:	90 0d       	add	r25, r0
     9bc:	11 24       	eor	r1, r1
     9be:	48 17       	cp	r20, r24
     9c0:	59 07       	cpc	r21, r25
     9c2:	24 f3       	brlt	.-56     	; 0x98c <_ZN12OrangutanLCD5clearEv+0x18>
     9c4:	10 92 36 01 	sts	0x0136, r1
     9c8:	10 92 35 01 	sts	0x0135, r1
     9cc:	08 95       	ret

000009ce <clear>:
     9ce:	0e 94 ba 04 	call	0x974	; 0x974 <_ZN12OrangutanLCD5clearEv>
     9d2:	08 95       	ret

000009d4 <_ZN12OrangutanLCD9send_dataEh>:
     9d4:	61 e0       	ldi	r22, 0x01	; 1
     9d6:	42 e0       	ldi	r20, 0x02	; 2
     9d8:	0e 94 18 04 	call	0x830	; 0x830 <_ZN12OrangutanLCD4sendEhhh>
     9dc:	08 95       	ret

000009de <_ZN12OrangutanLCD11printBinaryEh>:
     9de:	0f 93       	push	r16
     9e0:	1f 93       	push	r17
     9e2:	cf 93       	push	r28
     9e4:	df 93       	push	r29
     9e6:	00 e0       	ldi	r16, 0x00	; 0
     9e8:	10 e8       	ldi	r17, 0x80	; 128
     9ea:	c8 2f       	mov	r28, r24
     9ec:	d0 e0       	ldi	r29, 0x00	; 0
     9ee:	81 2f       	mov	r24, r17
     9f0:	90 e0       	ldi	r25, 0x00	; 0
     9f2:	8c 23       	and	r24, r28
     9f4:	9d 23       	and	r25, r29
     9f6:	89 2b       	or	r24, r25
     9f8:	11 f0       	breq	.+4      	; 0x9fe <_ZN12OrangutanLCD11printBinaryEh+0x20>
     9fa:	81 e3       	ldi	r24, 0x31	; 49
     9fc:	01 c0       	rjmp	.+2      	; 0xa00 <_ZN12OrangutanLCD11printBinaryEh+0x22>
     9fe:	80 e3       	ldi	r24, 0x30	; 48
     a00:	0e 94 ea 04 	call	0x9d4	; 0x9d4 <_ZN12OrangutanLCD9send_dataEh>
     a04:	0f 5f       	subi	r16, 0xFF	; 255
     a06:	08 30       	cpi	r16, 0x08	; 8
     a08:	11 f0       	breq	.+4      	; 0xa0e <_ZN12OrangutanLCD11printBinaryEh+0x30>
     a0a:	16 95       	lsr	r17
     a0c:	f0 cf       	rjmp	.-32     	; 0x9ee <_ZN12OrangutanLCD11printBinaryEh+0x10>
     a0e:	df 91       	pop	r29
     a10:	cf 91       	pop	r28
     a12:	1f 91       	pop	r17
     a14:	0f 91       	pop	r16
     a16:	08 95       	ret

00000a18 <print_binary>:
     a18:	0e 94 ef 04 	call	0x9de	; 0x9de <_ZN12OrangutanLCD11printBinaryEh>
     a1c:	08 95       	ret

00000a1e <_ZN12OrangutanLCD14printHexNibbleEh>:
     a1e:	8a 30       	cpi	r24, 0x0A	; 10
     a20:	10 f4       	brcc	.+4      	; 0xa26 <_ZN12OrangutanLCD14printHexNibbleEh+0x8>
     a22:	80 5d       	subi	r24, 0xD0	; 208
     a24:	01 c0       	rjmp	.+2      	; 0xa28 <_ZN12OrangutanLCD14printHexNibbleEh+0xa>
     a26:	89 5c       	subi	r24, 0xC9	; 201
     a28:	0e 94 ea 04 	call	0x9d4	; 0x9d4 <_ZN12OrangutanLCD9send_dataEh>
     a2c:	08 95       	ret

00000a2e <_ZN12OrangutanLCD8printHexEh>:
     a2e:	1f 93       	push	r17
     a30:	18 2f       	mov	r17, r24
     a32:	82 95       	swap	r24
     a34:	8f 70       	andi	r24, 0x0F	; 15
     a36:	0e 94 0f 05 	call	0xa1e	; 0xa1e <_ZN12OrangutanLCD14printHexNibbleEh>
     a3a:	81 2f       	mov	r24, r17
     a3c:	8f 70       	andi	r24, 0x0F	; 15
     a3e:	0e 94 0f 05 	call	0xa1e	; 0xa1e <_ZN12OrangutanLCD14printHexNibbleEh>
     a42:	1f 91       	pop	r17
     a44:	08 95       	ret

00000a46 <_ZN12OrangutanLCD8printHexEj>:
     a46:	1f 93       	push	r17
     a48:	18 2f       	mov	r17, r24
     a4a:	89 2f       	mov	r24, r25
     a4c:	0e 94 17 05 	call	0xa2e	; 0xa2e <_ZN12OrangutanLCD8printHexEh>
     a50:	81 2f       	mov	r24, r17
     a52:	0e 94 17 05 	call	0xa2e	; 0xa2e <_ZN12OrangutanLCD8printHexEh>
     a56:	1f 91       	pop	r17
     a58:	08 95       	ret

00000a5a <print_hex>:
     a5a:	0e 94 23 05 	call	0xa46	; 0xa46 <_ZN12OrangutanLCD8printHexEj>
     a5e:	08 95       	ret

00000a60 <print_hex_byte>:
     a60:	0e 94 17 05 	call	0xa2e	; 0xa2e <_ZN12OrangutanLCD8printHexEh>
     a64:	08 95       	ret

00000a66 <_ZN12OrangutanLCD5printEm>:
     a66:	6f 92       	push	r6
     a68:	7f 92       	push	r7
     a6a:	8f 92       	push	r8
     a6c:	9f 92       	push	r9
     a6e:	af 92       	push	r10
     a70:	bf 92       	push	r11
     a72:	cf 92       	push	r12
     a74:	df 92       	push	r13
     a76:	ff 92       	push	r15
     a78:	0f 93       	push	r16
     a7a:	df 93       	push	r29
     a7c:	cf 93       	push	r28
     a7e:	cd b7       	in	r28, 0x3d	; 61
     a80:	de b7       	in	r29, 0x3e	; 62
     a82:	2a 97       	sbiw	r28, 0x0a	; 10
     a84:	0f b6       	in	r0, 0x3f	; 63
     a86:	f8 94       	cli
     a88:	de bf       	out	0x3e, r29	; 62
     a8a:	0f be       	out	0x3f, r0	; 63
     a8c:	cd bf       	out	0x3d, r28	; 61
     a8e:	5b 01       	movw	r10, r22
     a90:	6c 01       	movw	r12, r24
     a92:	0a e0       	ldi	r16, 0x0A	; 10
     a94:	3e 01       	movw	r6, r28
     a96:	08 94       	sec
     a98:	61 1c       	adc	r6, r1
     a9a:	71 1c       	adc	r7, r1
     a9c:	fa 2c       	mov	r15, r10
     a9e:	c6 01       	movw	r24, r12
     aa0:	b5 01       	movw	r22, r10
     aa2:	2a e0       	ldi	r18, 0x0A	; 10
     aa4:	30 e0       	ldi	r19, 0x00	; 0
     aa6:	40 e0       	ldi	r20, 0x00	; 0
     aa8:	50 e0       	ldi	r21, 0x00	; 0
     aaa:	0e 94 9f 0f 	call	0x1f3e	; 0x1f3e <__udivmodsi4>
     aae:	c9 01       	movw	r24, r18
     ab0:	da 01       	movw	r26, r20
     ab2:	5c 01       	movw	r10, r24
     ab4:	6d 01       	movw	r12, r26
     ab6:	01 50       	subi	r16, 0x01	; 1
     ab8:	43 01       	movw	r8, r6
     aba:	80 0e       	add	r8, r16
     abc:	91 1c       	adc	r9, r1
     abe:	80 e3       	ldi	r24, 0x30	; 48
     ac0:	f8 0e       	add	r15, r24
     ac2:	c6 01       	movw	r24, r12
     ac4:	b5 01       	movw	r22, r10
     ac6:	2a e0       	ldi	r18, 0x0A	; 10
     ac8:	30 e0       	ldi	r19, 0x00	; 0
     aca:	40 e0       	ldi	r20, 0x00	; 0
     acc:	50 e0       	ldi	r21, 0x00	; 0
     ace:	0e 94 59 0f 	call	0x1eb2	; 0x1eb2 <__mulsi3>
     ad2:	f6 1a       	sub	r15, r22
     ad4:	f4 01       	movw	r30, r8
     ad6:	f0 82       	st	Z, r15
     ad8:	a1 14       	cp	r10, r1
     ada:	b1 04       	cpc	r11, r1
     adc:	c1 04       	cpc	r12, r1
     ade:	d1 04       	cpc	r13, r1
     ae0:	e9 f6       	brne	.-70     	; 0xa9c <_ZN12OrangutanLCD5printEm+0x36>
     ae2:	08 c0       	rjmp	.+16     	; 0xaf4 <_ZN12OrangutanLCD5printEm+0x8e>
     ae4:	f6 01       	movw	r30, r12
     ae6:	e0 0f       	add	r30, r16
     ae8:	f1 1d       	adc	r31, r1
     aea:	80 81       	ld	r24, Z
     aec:	0e 94 ea 04 	call	0x9d4	; 0x9d4 <_ZN12OrangutanLCD9send_dataEh>
     af0:	0f 5f       	subi	r16, 0xFF	; 255
     af2:	04 c0       	rjmp	.+8      	; 0xafc <_ZN12OrangutanLCD5printEm+0x96>
     af4:	6e 01       	movw	r12, r28
     af6:	08 94       	sec
     af8:	c1 1c       	adc	r12, r1
     afa:	d1 1c       	adc	r13, r1
     afc:	0a 30       	cpi	r16, 0x0A	; 10
     afe:	90 f3       	brcs	.-28     	; 0xae4 <_ZN12OrangutanLCD5printEm+0x7e>
     b00:	2a 96       	adiw	r28, 0x0a	; 10
     b02:	0f b6       	in	r0, 0x3f	; 63
     b04:	f8 94       	cli
     b06:	de bf       	out	0x3e, r29	; 62
     b08:	0f be       	out	0x3f, r0	; 63
     b0a:	cd bf       	out	0x3d, r28	; 61
     b0c:	cf 91       	pop	r28
     b0e:	df 91       	pop	r29
     b10:	0f 91       	pop	r16
     b12:	ff 90       	pop	r15
     b14:	df 90       	pop	r13
     b16:	cf 90       	pop	r12
     b18:	bf 90       	pop	r11
     b1a:	af 90       	pop	r10
     b1c:	9f 90       	pop	r9
     b1e:	8f 90       	pop	r8
     b20:	7f 90       	pop	r7
     b22:	6f 90       	pop	r6
     b24:	08 95       	ret

00000b26 <print_unsigned_long>:
     b26:	0e 94 33 05 	call	0xa66	; 0xa66 <_ZN12OrangutanLCD5printEm>
     b2a:	08 95       	ret

00000b2c <_ZN12OrangutanLCD5printEl>:
     b2c:	ef 92       	push	r14
     b2e:	ff 92       	push	r15
     b30:	0f 93       	push	r16
     b32:	1f 93       	push	r17
     b34:	7b 01       	movw	r14, r22
     b36:	8c 01       	movw	r16, r24
     b38:	97 ff       	sbrs	r25, 7
     b3a:	0b c0       	rjmp	.+22     	; 0xb52 <_ZN12OrangutanLCD5printEl+0x26>
     b3c:	10 95       	com	r17
     b3e:	00 95       	com	r16
     b40:	f0 94       	com	r15
     b42:	e0 94       	com	r14
     b44:	e1 1c       	adc	r14, r1
     b46:	f1 1c       	adc	r15, r1
     b48:	01 1d       	adc	r16, r1
     b4a:	11 1d       	adc	r17, r1
     b4c:	8d e2       	ldi	r24, 0x2D	; 45
     b4e:	0e 94 ea 04 	call	0x9d4	; 0x9d4 <_ZN12OrangutanLCD9send_dataEh>
     b52:	c8 01       	movw	r24, r16
     b54:	b7 01       	movw	r22, r14
     b56:	0e 94 33 05 	call	0xa66	; 0xa66 <_ZN12OrangutanLCD5printEm>
     b5a:	1f 91       	pop	r17
     b5c:	0f 91       	pop	r16
     b5e:	ff 90       	pop	r15
     b60:	ef 90       	pop	r14
     b62:	08 95       	ret

00000b64 <print_long>:
     b64:	0e 94 96 05 	call	0xb2c	; 0xb2c <_ZN12OrangutanLCD5printEl>
     b68:	08 95       	ret

00000b6a <_ZN12OrangutanLCD21printFromProgramSpaceEPKc>:
     b6a:	cf 93       	push	r28
     b6c:	df 93       	push	r29
     b6e:	ec 01       	movw	r28, r24
     b70:	03 c0       	rjmp	.+6      	; 0xb78 <_ZN12OrangutanLCD21printFromProgramSpaceEPKc+0xe>
     b72:	0e 94 ea 04 	call	0x9d4	; 0x9d4 <_ZN12OrangutanLCD9send_dataEh>
     b76:	21 96       	adiw	r28, 0x01	; 1
     b78:	fe 01       	movw	r30, r28
     b7a:	84 91       	lpm	r24, Z+
     b7c:	88 23       	and	r24, r24
     b7e:	c9 f7       	brne	.-14     	; 0xb72 <_ZN12OrangutanLCD21printFromProgramSpaceEPKc+0x8>
     b80:	df 91       	pop	r29
     b82:	cf 91       	pop	r28
     b84:	08 95       	ret

00000b86 <print_from_program_space>:
     b86:	0e 94 b5 05 	call	0xb6a	; 0xb6a <_ZN12OrangutanLCD21printFromProgramSpaceEPKc>
     b8a:	08 95       	ret

00000b8c <_ZN12OrangutanLCD5printEPKc>:
     b8c:	cf 93       	push	r28
     b8e:	df 93       	push	r29
     b90:	ec 01       	movw	r28, r24
     b92:	03 c0       	rjmp	.+6      	; 0xb9a <_ZN12OrangutanLCD5printEPKc+0xe>
     b94:	21 96       	adiw	r28, 0x01	; 1
     b96:	0e 94 ea 04 	call	0x9d4	; 0x9d4 <_ZN12OrangutanLCD9send_dataEh>
     b9a:	88 81       	ld	r24, Y
     b9c:	88 23       	and	r24, r24
     b9e:	d1 f7       	brne	.-12     	; 0xb94 <_ZN12OrangutanLCD5printEPKc+0x8>
     ba0:	df 91       	pop	r29
     ba2:	cf 91       	pop	r28
     ba4:	08 95       	ret

00000ba6 <print>:
     ba6:	0e 94 c6 05 	call	0xb8c	; 0xb8c <_ZN12OrangutanLCD5printEPKc>
     baa:	08 95       	ret

00000bac <_ZN12OrangutanLCD5printEc>:
     bac:	0e 94 ea 04 	call	0x9d4	; 0x9d4 <_ZN12OrangutanLCD9send_dataEh>
     bb0:	08 95       	ret

00000bb2 <print_character>:
     bb2:	0e 94 ea 04 	call	0x9d4	; 0x9d4 <_ZN12OrangutanLCD9send_dataEh>
     bb6:	08 95       	ret

00000bb8 <lcd_putchar>:
     bb8:	a0 e0       	ldi	r26, 0x00	; 0
     bba:	b0 e0       	ldi	r27, 0x00	; 0
     bbc:	e2 ee       	ldi	r30, 0xE2	; 226
     bbe:	f5 e0       	ldi	r31, 0x05	; 5
     bc0:	0c 94 cb 0f 	jmp	0x1f96	; 0x1f96 <__prologue_saves__+0x14>
     bc4:	e8 2e       	mov	r14, r24
     bc6:	80 91 33 01 	lds	r24, 0x0133
     bca:	90 91 34 01 	lds	r25, 0x0134
     bce:	89 2b       	or	r24, r25
     bd0:	09 f4       	brne	.+2      	; 0xbd4 <lcd_putchar+0x1c>
     bd2:	05 c1       	rjmp	.+522    	; 0xdde <lcd_putchar+0x226>
     bd4:	2a e0       	ldi	r18, 0x0A	; 10
     bd6:	e2 16       	cp	r14, r18
     bd8:	09 f4       	brne	.+2      	; 0xbdc <lcd_putchar+0x24>
     bda:	46 c0       	rjmp	.+140    	; 0xc68 <lcd_putchar+0xb0>
     bdc:	38 e0       	ldi	r19, 0x08	; 8
     bde:	e3 16       	cp	r14, r19
     be0:	c9 f4       	brne	.+50     	; 0xc14 <lcd_putchar+0x5c>
     be2:	80 91 36 01 	lds	r24, 0x0136
     be6:	81 50       	subi	r24, 0x01	; 1
     be8:	80 93 36 01 	sts	0x0136, r24
     bec:	8f 3f       	cpi	r24, 0xFF	; 255
     bee:	51 f4       	brne	.+20     	; 0xc04 <lcd_putchar+0x4c>
     bf0:	80 91 35 01 	lds	r24, 0x0135
     bf4:	81 50       	subi	r24, 0x01	; 1
     bf6:	80 93 35 01 	sts	0x0135, r24
     bfa:	80 91 03 01 	lds	r24, 0x0103
     bfe:	81 50       	subi	r24, 0x01	; 1
     c00:	80 93 36 01 	sts	0x0136, r24
     c04:	80 91 35 01 	lds	r24, 0x0135
     c08:	8f 3f       	cpi	r24, 0xFF	; 255
     c0a:	09 f0       	breq	.+2      	; 0xc0e <lcd_putchar+0x56>
     c0c:	e2 c0       	rjmp	.+452    	; 0xdd2 <lcd_putchar+0x21a>
     c0e:	10 92 35 01 	sts	0x0135, r1
     c12:	dd c0       	rjmp	.+442    	; 0xdce <lcd_putchar+0x216>
     c14:	8e 2d       	mov	r24, r14
     c16:	0e 94 ea 04 	call	0x9d4	; 0x9d4 <_ZN12OrangutanLCD9send_dataEh>
     c1a:	20 91 35 01 	lds	r18, 0x0135
     c1e:	22 23       	and	r18, r18
     c20:	c9 f0       	breq	.+50     	; 0xc54 <lcd_putchar+0x9c>
     c22:	30 e0       	ldi	r19, 0x00	; 0
     c24:	21 50       	subi	r18, 0x01	; 1
     c26:	30 40       	sbci	r19, 0x00	; 0
     c28:	80 91 03 01 	lds	r24, 0x0103
     c2c:	90 e0       	ldi	r25, 0x00	; 0
     c2e:	ac 01       	movw	r20, r24
     c30:	24 9f       	mul	r18, r20
     c32:	c0 01       	movw	r24, r0
     c34:	25 9f       	mul	r18, r21
     c36:	90 0d       	add	r25, r0
     c38:	34 9f       	mul	r19, r20
     c3a:	90 0d       	add	r25, r0
     c3c:	11 24       	eor	r1, r1
     c3e:	20 91 36 01 	lds	r18, 0x0136
     c42:	e0 91 33 01 	lds	r30, 0x0133
     c46:	f0 91 34 01 	lds	r31, 0x0134
     c4a:	e8 0f       	add	r30, r24
     c4c:	f9 1f       	adc	r31, r25
     c4e:	e2 0f       	add	r30, r18
     c50:	f1 1d       	adc	r31, r1
     c52:	e0 82       	st	Z, r14
     c54:	80 91 36 01 	lds	r24, 0x0136
     c58:	8f 5f       	subi	r24, 0xFF	; 255
     c5a:	80 93 36 01 	sts	0x0136, r24
     c5e:	90 91 03 01 	lds	r25, 0x0103
     c62:	89 17       	cp	r24, r25
     c64:	09 f0       	breq	.+2      	; 0xc68 <lcd_putchar+0xb0>
     c66:	bb c0       	rjmp	.+374    	; 0xdde <lcd_putchar+0x226>
     c68:	40 91 35 01 	lds	r20, 0x0135
     c6c:	24 2f       	mov	r18, r20
     c6e:	30 e0       	ldi	r19, 0x00	; 0
     c70:	80 91 02 01 	lds	r24, 0x0102
     c74:	90 e0       	ldi	r25, 0x00	; 0
     c76:	01 97       	sbiw	r24, 0x01	; 1
     c78:	28 17       	cp	r18, r24
     c7a:	39 07       	cpc	r19, r25
     c7c:	09 f0       	breq	.+2      	; 0xc80 <lcd_putchar+0xc8>
     c7e:	a4 c0       	rjmp	.+328    	; 0xdc8 <lcd_putchar+0x210>
     c80:	c0 e0       	ldi	r28, 0x00	; 0
     c82:	d0 e0       	ldi	r29, 0x00	; 0
     c84:	44 c0       	rjmp	.+136    	; 0xd0e <lcd_putchar+0x156>
     c86:	80 e0       	ldi	r24, 0x00	; 0
     c88:	6c 2f       	mov	r22, r28
     c8a:	0e 94 98 04 	call	0x930	; 0x930 <_ZN12OrangutanLCD6gotoXYEhh>
     c8e:	ff 24       	eor	r15, r15
     c90:	6e 01       	movw	r12, r28
     c92:	08 94       	sec
     c94:	c1 1c       	adc	r12, r1
     c96:	d1 1c       	adc	r13, r1
     c98:	35 c0       	rjmp	.+106    	; 0xd04 <lcd_putchar+0x14c>
     c9a:	0f 2d       	mov	r16, r15
     c9c:	10 e0       	ldi	r17, 0x00	; 0
     c9e:	90 e0       	ldi	r25, 0x00	; 0
     ca0:	9c 01       	movw	r18, r24
     ca2:	c2 9f       	mul	r28, r18
     ca4:	c0 01       	movw	r24, r0
     ca6:	c3 9f       	mul	r28, r19
     ca8:	90 0d       	add	r25, r0
     caa:	d2 9f       	mul	r29, r18
     cac:	90 0d       	add	r25, r0
     cae:	11 24       	eor	r1, r1
     cb0:	e0 91 33 01 	lds	r30, 0x0133
     cb4:	f0 91 34 01 	lds	r31, 0x0134
     cb8:	e0 0f       	add	r30, r16
     cba:	f1 1f       	adc	r31, r17
     cbc:	e8 0f       	add	r30, r24
     cbe:	f9 1f       	adc	r31, r25
     cc0:	80 81       	ld	r24, Z
     cc2:	0e 94 ea 04 	call	0x9d4	; 0x9d4 <_ZN12OrangutanLCD9send_dataEh>
     cc6:	e0 91 33 01 	lds	r30, 0x0133
     cca:	f0 91 34 01 	lds	r31, 0x0134
     cce:	80 91 03 01 	lds	r24, 0x0103
     cd2:	90 e0       	ldi	r25, 0x00	; 0
     cd4:	c8 9f       	mul	r28, r24
     cd6:	d0 01       	movw	r26, r0
     cd8:	c9 9f       	mul	r28, r25
     cda:	b0 0d       	add	r27, r0
     cdc:	d8 9f       	mul	r29, r24
     cde:	b0 0d       	add	r27, r0
     ce0:	11 24       	eor	r1, r1
     ce2:	e0 0f       	add	r30, r16
     ce4:	f1 1f       	adc	r31, r17
     ce6:	ae 0f       	add	r26, r30
     ce8:	bf 1f       	adc	r27, r31
     cea:	ac 01       	movw	r20, r24
     cec:	c4 9e       	mul	r12, r20
     cee:	c0 01       	movw	r24, r0
     cf0:	c5 9e       	mul	r12, r21
     cf2:	90 0d       	add	r25, r0
     cf4:	d4 9e       	mul	r13, r20
     cf6:	90 0d       	add	r25, r0
     cf8:	11 24       	eor	r1, r1
     cfa:	e8 0f       	add	r30, r24
     cfc:	f9 1f       	adc	r31, r25
     cfe:	80 81       	ld	r24, Z
     d00:	8c 93       	st	X, r24
     d02:	f3 94       	inc	r15
     d04:	80 91 03 01 	lds	r24, 0x0103
     d08:	f8 16       	cp	r15, r24
     d0a:	38 f2       	brcs	.-114    	; 0xc9a <lcd_putchar+0xe2>
     d0c:	e6 01       	movw	r28, r12
     d0e:	60 91 02 01 	lds	r22, 0x0102
     d12:	86 2f       	mov	r24, r22
     d14:	90 e0       	ldi	r25, 0x00	; 0
     d16:	02 97       	sbiw	r24, 0x02	; 2
     d18:	c8 17       	cp	r28, r24
     d1a:	d9 07       	cpc	r29, r25
     d1c:	0c f4       	brge	.+2      	; 0xd20 <lcd_putchar+0x168>
     d1e:	b3 cf       	rjmp	.-154    	; 0xc86 <lcd_putchar+0xce>
     d20:	62 30       	cpi	r22, 0x02	; 2
     d22:	08 f4       	brcc	.+2      	; 0xd26 <lcd_putchar+0x16e>
     d24:	40 c0       	rjmp	.+128    	; 0xda6 <lcd_putchar+0x1ee>
     d26:	62 50       	subi	r22, 0x02	; 2
     d28:	80 e0       	ldi	r24, 0x00	; 0
     d2a:	0e 94 98 04 	call	0x930	; 0x930 <_ZN12OrangutanLCD6gotoXYEhh>
     d2e:	ff 24       	eor	r15, r15
     d30:	40 e2       	ldi	r20, 0x20	; 32
     d32:	d4 2e       	mov	r13, r20
     d34:	34 c0       	rjmp	.+104    	; 0xd9e <lcd_putchar+0x1e6>
     d36:	0f 2d       	mov	r16, r15
     d38:	10 e0       	ldi	r17, 0x00	; 0
     d3a:	80 91 02 01 	lds	r24, 0x0102
     d3e:	90 e0       	ldi	r25, 0x00	; 0
     d40:	02 97       	sbiw	r24, 0x02	; 2
     d42:	30 e0       	ldi	r19, 0x00	; 0
     d44:	ac 01       	movw	r20, r24
     d46:	42 9f       	mul	r20, r18
     d48:	c0 01       	movw	r24, r0
     d4a:	43 9f       	mul	r20, r19
     d4c:	90 0d       	add	r25, r0
     d4e:	52 9f       	mul	r21, r18
     d50:	90 0d       	add	r25, r0
     d52:	11 24       	eor	r1, r1
     d54:	e0 91 33 01 	lds	r30, 0x0133
     d58:	f0 91 34 01 	lds	r31, 0x0134
     d5c:	e0 0f       	add	r30, r16
     d5e:	f1 1f       	adc	r31, r17
     d60:	e8 0f       	add	r30, r24
     d62:	f9 1f       	adc	r31, r25
     d64:	80 81       	ld	r24, Z
     d66:	0e 94 ea 04 	call	0x9d4	; 0x9d4 <_ZN12OrangutanLCD9send_dataEh>
     d6a:	20 91 02 01 	lds	r18, 0x0102
     d6e:	30 e0       	ldi	r19, 0x00	; 0
     d70:	22 50       	subi	r18, 0x02	; 2
     d72:	30 40       	sbci	r19, 0x00	; 0
     d74:	80 91 03 01 	lds	r24, 0x0103
     d78:	90 e0       	ldi	r25, 0x00	; 0
     d7a:	ac 01       	movw	r20, r24
     d7c:	24 9f       	mul	r18, r20
     d7e:	c0 01       	movw	r24, r0
     d80:	25 9f       	mul	r18, r21
     d82:	90 0d       	add	r25, r0
     d84:	34 9f       	mul	r19, r20
     d86:	90 0d       	add	r25, r0
     d88:	11 24       	eor	r1, r1
     d8a:	e0 91 33 01 	lds	r30, 0x0133
     d8e:	f0 91 34 01 	lds	r31, 0x0134
     d92:	e0 0f       	add	r30, r16
     d94:	f1 1f       	adc	r31, r17
     d96:	e8 0f       	add	r30, r24
     d98:	f9 1f       	adc	r31, r25
     d9a:	d0 82       	st	Z, r13
     d9c:	f3 94       	inc	r15
     d9e:	20 91 03 01 	lds	r18, 0x0103
     da2:	f2 16       	cp	r15, r18
     da4:	40 f2       	brcs	.-112    	; 0xd36 <lcd_putchar+0x17e>
     da6:	60 91 02 01 	lds	r22, 0x0102
     daa:	61 50       	subi	r22, 0x01	; 1
     dac:	80 e0       	ldi	r24, 0x00	; 0
     dae:	0e 94 98 04 	call	0x930	; 0x930 <_ZN12OrangutanLCD6gotoXYEhh>
     db2:	00 e0       	ldi	r16, 0x00	; 0
     db4:	04 c0       	rjmp	.+8      	; 0xdbe <lcd_putchar+0x206>
     db6:	80 e2       	ldi	r24, 0x20	; 32
     db8:	0e 94 ea 04 	call	0x9d4	; 0x9d4 <_ZN12OrangutanLCD9send_dataEh>
     dbc:	0f 5f       	subi	r16, 0xFF	; 255
     dbe:	80 91 03 01 	lds	r24, 0x0103
     dc2:	08 17       	cp	r16, r24
     dc4:	c0 f3       	brcs	.-16     	; 0xdb6 <lcd_putchar+0x1fe>
     dc6:	03 c0       	rjmp	.+6      	; 0xdce <lcd_putchar+0x216>
     dc8:	4f 5f       	subi	r20, 0xFF	; 255
     dca:	40 93 35 01 	sts	0x0135, r20
     dce:	10 92 36 01 	sts	0x0136, r1
     dd2:	80 91 36 01 	lds	r24, 0x0136
     dd6:	60 91 35 01 	lds	r22, 0x0135
     dda:	0e 94 98 04 	call	0x930	; 0x930 <_ZN12OrangutanLCD6gotoXYEhh>
     dde:	2e 2d       	mov	r18, r14
     de0:	33 27       	eor	r19, r19
     de2:	27 fd       	sbrc	r18, 7
     de4:	30 95       	com	r19
     de6:	c9 01       	movw	r24, r18
     de8:	cd b7       	in	r28, 0x3d	; 61
     dea:	de b7       	in	r29, 0x3e	; 62
     dec:	e8 e0       	ldi	r30, 0x08	; 8
     dee:	0c 94 e7 0f 	jmp	0x1fce	; 0x1fce <__epilogue_restores__+0x14>

00000df2 <_ZN12OrangutanLCD19loadCustomCharacterEPKch>:
     df2:	ef 92       	push	r14
     df4:	ff 92       	push	r15
     df6:	0f 93       	push	r16
     df8:	1f 93       	push	r17
     dfa:	cf 93       	push	r28
     dfc:	df 93       	push	r29
     dfe:	7c 01       	movw	r14, r24
     e00:	06 2f       	mov	r16, r22
     e02:	10 e0       	ldi	r17, 0x00	; 0
     e04:	53 e0       	ldi	r21, 0x03	; 3
     e06:	00 0f       	add	r16, r16
     e08:	11 1f       	adc	r17, r17
     e0a:	5a 95       	dec	r21
     e0c:	e1 f7       	brne	.-8      	; 0xe06 <_ZN12OrangutanLCD19loadCustomCharacterEPKch+0x14>
     e0e:	c0 e0       	ldi	r28, 0x00	; 0
     e10:	d0 e0       	ldi	r29, 0x00	; 0
     e12:	9e 01       	movw	r18, r28
     e14:	20 0f       	add	r18, r16
     e16:	82 2f       	mov	r24, r18
     e18:	80 64       	ori	r24, 0x40	; 64
     e1a:	0e 94 6c 04 	call	0x8d8	; 0x8d8 <_ZN12OrangutanLCD8send_cmdEh>
     e1e:	f7 01       	movw	r30, r14
     e20:	ec 0f       	add	r30, r28
     e22:	fd 1f       	adc	r31, r29
     e24:	e4 91       	lpm	r30, Z+
     e26:	8e 2f       	mov	r24, r30
     e28:	0e 94 ea 04 	call	0x9d4	; 0x9d4 <_ZN12OrangutanLCD9send_dataEh>
     e2c:	21 96       	adiw	r28, 0x01	; 1
     e2e:	c8 30       	cpi	r28, 0x08	; 8
     e30:	d1 05       	cpc	r29, r1
     e32:	79 f7       	brne	.-34     	; 0xe12 <_ZN12OrangutanLCD19loadCustomCharacterEPKch+0x20>
     e34:	cd b7       	in	r28, 0x3d	; 61
     e36:	de b7       	in	r29, 0x3e	; 62
     e38:	e6 e0       	ldi	r30, 0x06	; 6
     e3a:	0c 94 e9 0f 	jmp	0x1fd2	; 0x1fd2 <__epilogue_restores__+0x18>

00000e3e <lcd_load_custom_character>:
     e3e:	0e 94 f9 06 	call	0xdf2	; 0xdf2 <_ZN12OrangutanLCD19loadCustomCharacterEPKch>
     e42:	08 95       	ret

00000e44 <_ZN12OrangutanLCD13send_4bit_cmdEh>:
     e44:	60 e0       	ldi	r22, 0x00	; 0
     e46:	41 e0       	ldi	r20, 0x01	; 1
     e48:	0e 94 18 04 	call	0x830	; 0x830 <_ZN12OrangutanLCD4sendEhhh>
     e4c:	08 95       	ret

00000e4e <_ZN12OrangutanLCD6scrollEhhj>:
     e4e:	0f 93       	push	r16
     e50:	1f 93       	push	r17
     e52:	cf 93       	push	r28
     e54:	df 93       	push	r29
     e56:	08 2f       	mov	r16, r24
     e58:	16 2f       	mov	r17, r22
     e5a:	ea 01       	movw	r28, r20
     e5c:	0b c0       	rjmp	.+22     	; 0xe74 <_ZN12OrangutanLCD6scrollEhhj+0x26>
     e5e:	00 23       	and	r16, r16
     e60:	11 f4       	brne	.+4      	; 0xe66 <_ZN12OrangutanLCD6scrollEhhj+0x18>
     e62:	88 e1       	ldi	r24, 0x18	; 24
     e64:	01 c0       	rjmp	.+2      	; 0xe68 <_ZN12OrangutanLCD6scrollEhhj+0x1a>
     e66:	8c e1       	ldi	r24, 0x1C	; 28
     e68:	0e 94 6c 04 	call	0x8d8	; 0x8d8 <_ZN12OrangutanLCD8send_cmdEh>
     e6c:	ce 01       	movw	r24, r28
     e6e:	0e 94 1f 0d 	call	0x1a3e	; 0x1a3e <_ZN13OrangutanTime17delayMillisecondsEj>
     e72:	11 50       	subi	r17, 0x01	; 1
     e74:	11 23       	and	r17, r17
     e76:	99 f7       	brne	.-26     	; 0xe5e <_ZN12OrangutanLCD6scrollEhhj+0x10>
     e78:	df 91       	pop	r29
     e7a:	cf 91       	pop	r28
     e7c:	1f 91       	pop	r17
     e7e:	0f 91       	pop	r16
     e80:	08 95       	ret

00000e82 <lcd_scroll>:
     e82:	0e 94 27 07 	call	0xe4e	; 0xe4e <_ZN12OrangutanLCD6scrollEhhj>
     e86:	08 95       	ret

00000e88 <serial_get_mode>:
     e88:	28 2f       	mov	r18, r24
     e8a:	30 e0       	ldi	r19, 0x00	; 0
     e8c:	f9 01       	movw	r30, r18
     e8e:	93 e0       	ldi	r25, 0x03	; 3
     e90:	ee 0f       	add	r30, r30
     e92:	ff 1f       	adc	r31, r31
     e94:	9a 95       	dec	r25
     e96:	e1 f7       	brne	.-8      	; 0xe90 <serial_get_mode+0x8>
     e98:	22 0f       	add	r18, r18
     e9a:	33 1f       	adc	r19, r19
     e9c:	e2 0f       	add	r30, r18
     e9e:	f3 1f       	adc	r31, r19
     ea0:	ec 5f       	subi	r30, 0xFC	; 252
     ea2:	fe 4f       	sbci	r31, 0xFE	; 254
     ea4:	80 81       	ld	r24, Z
     ea6:	08 95       	ret

00000ea8 <serial_get_received_bytes>:
     ea8:	90 e0       	ldi	r25, 0x00	; 0
     eaa:	fc 01       	movw	r30, r24
     eac:	ee 0f       	add	r30, r30
     eae:	ff 1f       	adc	r31, r31
     eb0:	ee 0f       	add	r30, r30
     eb2:	ff 1f       	adc	r31, r31
     eb4:	e8 0f       	add	r30, r24
     eb6:	f9 1f       	adc	r31, r25
     eb8:	ee 0f       	add	r30, r30
     eba:	ff 1f       	adc	r31, r31
     ebc:	ea 5f       	subi	r30, 0xFA	; 250
     ebe:	fe 4f       	sbci	r31, 0xFE	; 254
     ec0:	80 81       	ld	r24, Z
     ec2:	08 95       	ret

00000ec4 <serial_receive_buffer_full>:
     ec4:	90 e0       	ldi	r25, 0x00	; 0
     ec6:	fc 01       	movw	r30, r24
     ec8:	ee 0f       	add	r30, r30
     eca:	ff 1f       	adc	r31, r31
     ecc:	ee 0f       	add	r30, r30
     ece:	ff 1f       	adc	r31, r31
     ed0:	e8 0f       	add	r30, r24
     ed2:	f9 1f       	adc	r31, r25
     ed4:	ee 0f       	add	r30, r30
     ed6:	ff 1f       	adc	r31, r31
     ed8:	ea 5f       	subi	r30, 0xFA	; 250
     eda:	fe 4f       	sbci	r31, 0xFE	; 254
     edc:	20 81       	ld	r18, Z
     ede:	30 e0       	ldi	r19, 0x00	; 0
     ee0:	fc 01       	movw	r30, r24
     ee2:	53 e0       	ldi	r21, 0x03	; 3
     ee4:	ee 0f       	add	r30, r30
     ee6:	ff 1f       	adc	r31, r31
     ee8:	5a 95       	dec	r21
     eea:	e1 f7       	brne	.-8      	; 0xee4 <serial_receive_buffer_full+0x20>
     eec:	88 0f       	add	r24, r24
     eee:	99 1f       	adc	r25, r25
     ef0:	e8 0f       	add	r30, r24
     ef2:	f9 1f       	adc	r31, r25
     ef4:	ec 5f       	subi	r30, 0xFC	; 252
     ef6:	fe 4f       	sbci	r31, 0xFE	; 254
     ef8:	84 81       	ldd	r24, Z+4	; 0x04
     efa:	28 17       	cp	r18, r24
     efc:	09 f4       	brne	.+2      	; 0xf00 <serial_receive_buffer_full+0x3c>
     efe:	31 e0       	ldi	r19, 0x01	; 1
     f00:	83 2f       	mov	r24, r19
     f02:	08 95       	ret

00000f04 <serial_get_sent_bytes>:
     f04:	28 2f       	mov	r18, r24
     f06:	30 e0       	ldi	r19, 0x00	; 0
     f08:	f9 01       	movw	r30, r18
     f0a:	b3 e0       	ldi	r27, 0x03	; 3
     f0c:	ee 0f       	add	r30, r30
     f0e:	ff 1f       	adc	r31, r31
     f10:	ba 95       	dec	r27
     f12:	e1 f7       	brne	.-8      	; 0xf0c <serial_get_sent_bytes+0x8>
     f14:	22 0f       	add	r18, r18
     f16:	33 1f       	adc	r19, r19
     f18:	e2 0f       	add	r30, r18
     f1a:	f3 1f       	adc	r31, r19
     f1c:	ec 5f       	subi	r30, 0xFC	; 252
     f1e:	fe 4f       	sbci	r31, 0xFE	; 254
     f20:	81 81       	ldd	r24, Z+1	; 0x01
     f22:	08 95       	ret

00000f24 <serial_send_buffer_empty>:
     f24:	28 2f       	mov	r18, r24
     f26:	30 e0       	ldi	r19, 0x00	; 0
     f28:	f9 01       	movw	r30, r18
     f2a:	73 e0       	ldi	r23, 0x03	; 3
     f2c:	ee 0f       	add	r30, r30
     f2e:	ff 1f       	adc	r31, r31
     f30:	7a 95       	dec	r23
     f32:	e1 f7       	brne	.-8      	; 0xf2c <serial_send_buffer_empty+0x8>
     f34:	22 0f       	add	r18, r18
     f36:	33 1f       	adc	r19, r19
     f38:	e2 0f       	add	r30, r18
     f3a:	f3 1f       	adc	r31, r19
     f3c:	ec 5f       	subi	r30, 0xFC	; 252
     f3e:	fe 4f       	sbci	r31, 0xFE	; 254
     f40:	91 81       	ldd	r25, Z+1	; 0x01
     f42:	40 e0       	ldi	r20, 0x00	; 0
     f44:	28 2f       	mov	r18, r24
     f46:	30 e0       	ldi	r19, 0x00	; 0
     f48:	f9 01       	movw	r30, r18
     f4a:	53 e0       	ldi	r21, 0x03	; 3
     f4c:	ee 0f       	add	r30, r30
     f4e:	ff 1f       	adc	r31, r31
     f50:	5a 95       	dec	r21
     f52:	e1 f7       	brne	.-8      	; 0xf4c <serial_send_buffer_empty+0x28>
     f54:	22 0f       	add	r18, r18
     f56:	33 1f       	adc	r19, r19
     f58:	e2 0f       	add	r30, r18
     f5a:	f3 1f       	adc	r31, r19
     f5c:	ec 5f       	subi	r30, 0xFC	; 252
     f5e:	fe 4f       	sbci	r31, 0xFE	; 254
     f60:	83 81       	ldd	r24, Z+3	; 0x03
     f62:	98 17       	cp	r25, r24
     f64:	09 f4       	brne	.+2      	; 0xf68 <serial_send_buffer_empty+0x44>
     f66:	41 e0       	ldi	r20, 0x01	; 1
     f68:	84 2f       	mov	r24, r20
     f6a:	08 95       	ret

00000f6c <_ZN15OrangutanSerial8initPortEh>:
     f6c:	88 23       	and	r24, r24
     f6e:	21 f0       	breq	.+8      	; 0xf78 <_ZN15OrangutanSerial8initPortEh+0xc>
     f70:	81 30       	cpi	r24, 0x01	; 1
     f72:	09 f0       	breq	.+2      	; 0xf76 <_ZN15OrangutanSerial8initPortEh+0xa>
     f74:	44 c0       	rjmp	.+136    	; 0xffe <_ZN15OrangutanSerial8initPortEh+0x92>
     f76:	1d c0       	rjmp	.+58     	; 0xfb2 <_ZN15OrangutanSerial8initPortEh+0x46>
     f78:	20 91 04 01 	lds	r18, 0x0104
     f7c:	22 23       	and	r18, r18
     f7e:	11 f4       	brne	.+4      	; 0xf84 <_ZN15OrangutanSerial8initPortEh+0x18>
     f80:	88 e9       	ldi	r24, 0x98	; 152
     f82:	01 c0       	rjmp	.+2      	; 0xf86 <_ZN15OrangutanSerial8initPortEh+0x1a>
     f84:	88 e1       	ldi	r24, 0x18	; 24
     f86:	80 93 c1 00 	sts	0x00C1, r24
     f8a:	80 91 0a 01 	lds	r24, 0x010A
     f8e:	90 91 0b 01 	lds	r25, 0x010B
     f92:	89 2b       	or	r24, r25
     f94:	61 f1       	breq	.+88     	; 0xfee <_ZN15OrangutanSerial8initPortEh+0x82>
     f96:	90 91 05 01 	lds	r25, 0x0105
     f9a:	80 91 07 01 	lds	r24, 0x0107
     f9e:	98 17       	cp	r25, r24
     fa0:	30 f5       	brcc	.+76     	; 0xfee <_ZN15OrangutanSerial8initPortEh+0x82>
     fa2:	22 23       	and	r18, r18
     fa4:	21 f5       	brne	.+72     	; 0xfee <_ZN15OrangutanSerial8initPortEh+0x82>
     fa6:	80 91 c1 00 	lds	r24, 0x00C1
     faa:	80 62       	ori	r24, 0x20	; 32
     fac:	80 93 c1 00 	sts	0x00C1, r24
     fb0:	1c c0       	rjmp	.+56     	; 0xfea <_ZN15OrangutanSerial8initPortEh+0x7e>
     fb2:	20 91 0e 01 	lds	r18, 0x010E
     fb6:	22 23       	and	r18, r18
     fb8:	11 f4       	brne	.+4      	; 0xfbe <_ZN15OrangutanSerial8initPortEh+0x52>
     fba:	88 e9       	ldi	r24, 0x98	; 152
     fbc:	01 c0       	rjmp	.+2      	; 0xfc0 <_ZN15OrangutanSerial8initPortEh+0x54>
     fbe:	88 e1       	ldi	r24, 0x18	; 24
     fc0:	80 93 c9 00 	sts	0x00C9, r24
     fc4:	80 91 14 01 	lds	r24, 0x0114
     fc8:	90 91 15 01 	lds	r25, 0x0115
     fcc:	89 2b       	or	r24, r25
     fce:	99 f0       	breq	.+38     	; 0xff6 <_ZN15OrangutanSerial8initPortEh+0x8a>
     fd0:	90 91 0f 01 	lds	r25, 0x010F
     fd4:	80 91 11 01 	lds	r24, 0x0111
     fd8:	98 17       	cp	r25, r24
     fda:	68 f4       	brcc	.+26     	; 0xff6 <_ZN15OrangutanSerial8initPortEh+0x8a>
     fdc:	22 23       	and	r18, r18
     fde:	59 f4       	brne	.+22     	; 0xff6 <_ZN15OrangutanSerial8initPortEh+0x8a>
     fe0:	80 91 c9 00 	lds	r24, 0x00C9
     fe4:	80 62       	ori	r24, 0x20	; 32
     fe6:	80 93 c9 00 	sts	0x00C9, r24
     fea:	78 94       	sei
     fec:	08 95       	ret
     fee:	80 91 c1 00 	lds	r24, 0x00C1
     ff2:	8f 7d       	andi	r24, 0xDF	; 223
     ff4:	db cf       	rjmp	.-74     	; 0xfac <_ZN15OrangutanSerial8initPortEh+0x40>
     ff6:	80 91 c9 00 	lds	r24, 0x00C9
     ffa:	8f 7d       	andi	r24, 0xDF	; 223
     ffc:	f4 cf       	rjmp	.-24     	; 0xfe6 <_ZN15OrangutanSerial8initPortEh+0x7a>
     ffe:	08 95       	ret

00001000 <serial_set_mode>:
    1000:	28 2f       	mov	r18, r24
    1002:	30 e0       	ldi	r19, 0x00	; 0
    1004:	f9 01       	movw	r30, r18
    1006:	b3 e0       	ldi	r27, 0x03	; 3
    1008:	ee 0f       	add	r30, r30
    100a:	ff 1f       	adc	r31, r31
    100c:	ba 95       	dec	r27
    100e:	e1 f7       	brne	.-8      	; 0x1008 <serial_set_mode+0x8>
    1010:	22 0f       	add	r18, r18
    1012:	33 1f       	adc	r19, r19
    1014:	e2 0f       	add	r30, r18
    1016:	f3 1f       	adc	r31, r19
    1018:	ec 5f       	subi	r30, 0xFC	; 252
    101a:	fe 4f       	sbci	r31, 0xFE	; 254
    101c:	60 83       	st	Z, r22
    101e:	0e 94 b6 07 	call	0xf6c	; 0xf6c <_ZN15OrangutanSerial8initPortEh>
    1022:	08 95       	ret

00001024 <_ZN15OrangutanSerial11setBaudRateEhm>:
    1024:	a0 e0       	ldi	r26, 0x00	; 0
    1026:	b0 e0       	ldi	r27, 0x00	; 0
    1028:	e8 e1       	ldi	r30, 0x18	; 24
    102a:	f8 e0       	ldi	r31, 0x08	; 8
    102c:	0c 94 cc 0f 	jmp	0x1f98	; 0x1f98 <__prologue_saves__+0x16>
    1030:	d8 2e       	mov	r13, r24
    1032:	7a 01       	movw	r14, r20
    1034:	8b 01       	movw	r16, r22
    1036:	0e 94 b6 07 	call	0xf6c	; 0xf6c <_ZN15OrangutanSerial8initPortEh>
    103a:	82 e0       	ldi	r24, 0x02	; 2
    103c:	d8 16       	cp	r13, r24
    103e:	19 f1       	breq	.+70     	; 0x1086 <_ZN15OrangutanSerial11setBaudRateEhm+0x62>
    1040:	dd 20       	and	r13, r13
    1042:	19 f0       	breq	.+6      	; 0x104a <_ZN15OrangutanSerial11setBaudRateEhm+0x26>
    1044:	cc ec       	ldi	r28, 0xCC	; 204
    1046:	d0 e0       	ldi	r29, 0x00	; 0
    1048:	02 c0       	rjmp	.+4      	; 0x104e <_ZN15OrangutanSerial11setBaudRateEhm+0x2a>
    104a:	c4 ec       	ldi	r28, 0xC4	; 196
    104c:	d0 e0       	ldi	r29, 0x00	; 0
    104e:	60 ea       	ldi	r22, 0xA0	; 160
    1050:	75 e2       	ldi	r23, 0x25	; 37
    1052:	86 e2       	ldi	r24, 0x26	; 38
    1054:	90 e0       	ldi	r25, 0x00	; 0
    1056:	6e 19       	sub	r22, r14
    1058:	7f 09       	sbc	r23, r15
    105a:	80 0b       	sbc	r24, r16
    105c:	91 0b       	sbc	r25, r17
    105e:	33 e0       	ldi	r19, 0x03	; 3
    1060:	66 0f       	add	r22, r22
    1062:	77 1f       	adc	r23, r23
    1064:	88 1f       	adc	r24, r24
    1066:	99 1f       	adc	r25, r25
    1068:	3a 95       	dec	r19
    106a:	d1 f7       	brne	.-12     	; 0x1060 <_ZN15OrangutanSerial11setBaudRateEhm+0x3c>
    106c:	24 e0       	ldi	r18, 0x04	; 4
    106e:	ee 0c       	add	r14, r14
    1070:	ff 1c       	adc	r15, r15
    1072:	00 1f       	adc	r16, r16
    1074:	11 1f       	adc	r17, r17
    1076:	2a 95       	dec	r18
    1078:	d1 f7       	brne	.-12     	; 0x106e <_ZN15OrangutanSerial11setBaudRateEhm+0x4a>
    107a:	a8 01       	movw	r20, r16
    107c:	97 01       	movw	r18, r14
    107e:	0e 94 9f 0f 	call	0x1f3e	; 0x1f3e <__udivmodsi4>
    1082:	39 83       	std	Y+1, r19	; 0x01
    1084:	28 83       	st	Y, r18
    1086:	cd b7       	in	r28, 0x3d	; 61
    1088:	de b7       	in	r29, 0x3e	; 62
    108a:	e7 e0       	ldi	r30, 0x07	; 7
    108c:	0c 94 e8 0f 	jmp	0x1fd0	; 0x1fd0 <__epilogue_restores__+0x16>

00001090 <serial_set_baud_rate>:
    1090:	0e 94 12 08 	call	0x1024	; 0x1024 <_ZN15OrangutanSerial11setBaudRateEhm>
    1094:	08 95       	ret

00001096 <_ZN15OrangutanSerial7setModeEhh>:
    1096:	28 2f       	mov	r18, r24
    1098:	30 e0       	ldi	r19, 0x00	; 0
    109a:	f9 01       	movw	r30, r18
    109c:	53 e0       	ldi	r21, 0x03	; 3
    109e:	ee 0f       	add	r30, r30
    10a0:	ff 1f       	adc	r31, r31
    10a2:	5a 95       	dec	r21
    10a4:	e1 f7       	brne	.-8      	; 0x109e <_ZN15OrangutanSerial7setModeEhh+0x8>
    10a6:	22 0f       	add	r18, r18
    10a8:	33 1f       	adc	r19, r19
    10aa:	e2 0f       	add	r30, r18
    10ac:	f3 1f       	adc	r31, r19
    10ae:	ec 5f       	subi	r30, 0xFC	; 252
    10b0:	fe 4f       	sbci	r31, 0xFE	; 254
    10b2:	60 83       	st	Z, r22
    10b4:	0e 94 b6 07 	call	0xf6c	; 0xf6c <_ZN15OrangutanSerial8initPortEh>
    10b8:	08 95       	ret

000010ba <_ZN15OrangutanSerial7receiveEhPch>:
    10ba:	58 2f       	mov	r21, r24
    10bc:	82 30       	cpi	r24, 0x02	; 2
    10be:	51 f0       	breq	.+20     	; 0x10d4 <_ZN15OrangutanSerial7receiveEhPch+0x1a>
    10c0:	88 23       	and	r24, r24
    10c2:	19 f0       	breq	.+6      	; 0x10ca <_ZN15OrangutanSerial7receiveEhPch+0x10>
    10c4:	e9 ec       	ldi	r30, 0xC9	; 201
    10c6:	f0 e0       	ldi	r31, 0x00	; 0
    10c8:	02 c0       	rjmp	.+4      	; 0x10ce <_ZN15OrangutanSerial7receiveEhPch+0x14>
    10ca:	e1 ec       	ldi	r30, 0xC1	; 193
    10cc:	f0 e0       	ldi	r31, 0x00	; 0
    10ce:	80 81       	ld	r24, Z
    10d0:	8f 77       	andi	r24, 0x7F	; 127
    10d2:	80 83       	st	Z, r24
    10d4:	25 2f       	mov	r18, r21
    10d6:	30 e0       	ldi	r19, 0x00	; 0
    10d8:	d9 01       	movw	r26, r18
    10da:	aa 0f       	add	r26, r26
    10dc:	bb 1f       	adc	r27, r27
    10de:	c9 01       	movw	r24, r18
    10e0:	e3 e0       	ldi	r30, 0x03	; 3
    10e2:	88 0f       	add	r24, r24
    10e4:	99 1f       	adc	r25, r25
    10e6:	ea 95       	dec	r30
    10e8:	e1 f7       	brne	.-8      	; 0x10e2 <_ZN15OrangutanSerial7receiveEhPch+0x28>
    10ea:	a8 0f       	add	r26, r24
    10ec:	b9 1f       	adc	r27, r25
    10ee:	ac 5f       	subi	r26, 0xFC	; 252
    10f0:	be 4f       	sbci	r27, 0xFE	; 254
    10f2:	19 96       	adiw	r26, 0x09	; 9
    10f4:	7c 93       	st	X, r23
    10f6:	6e 93       	st	-X, r22
    10f8:	18 97       	sbiw	r26, 0x08	; 8
    10fa:	f9 01       	movw	r30, r18
    10fc:	ee 0f       	add	r30, r30
    10fe:	ff 1f       	adc	r31, r31
    1100:	ee 0f       	add	r30, r30
    1102:	ff 1f       	adc	r31, r31
    1104:	e2 0f       	add	r30, r18
    1106:	f3 1f       	adc	r31, r19
    1108:	ee 0f       	add	r30, r30
    110a:	ff 1f       	adc	r31, r31
    110c:	ea 5f       	subi	r30, 0xFA	; 250
    110e:	fe 4f       	sbci	r31, 0xFE	; 254
    1110:	10 82       	st	Z, r1
    1112:	14 96       	adiw	r26, 0x04	; 4
    1114:	4c 93       	st	X, r20
    1116:	14 97       	sbiw	r26, 0x04	; 4
    1118:	15 96       	adiw	r26, 0x05	; 5
    111a:	1c 92       	st	X, r1
    111c:	15 97       	sbiw	r26, 0x05	; 5
    111e:	52 30       	cpi	r21, 0x02	; 2
    1120:	69 f0       	breq	.+26     	; 0x113c <_ZN15OrangutanSerial7receiveEhPch+0x82>
    1122:	8c 91       	ld	r24, X
    1124:	88 23       	and	r24, r24
    1126:	51 f4       	brne	.+20     	; 0x113c <_ZN15OrangutanSerial7receiveEhPch+0x82>
    1128:	55 23       	and	r21, r21
    112a:	19 f0       	breq	.+6      	; 0x1132 <_ZN15OrangutanSerial7receiveEhPch+0x78>
    112c:	e9 ec       	ldi	r30, 0xC9	; 201
    112e:	f0 e0       	ldi	r31, 0x00	; 0
    1130:	02 c0       	rjmp	.+4      	; 0x1136 <_ZN15OrangutanSerial7receiveEhPch+0x7c>
    1132:	e1 ec       	ldi	r30, 0xC1	; 193
    1134:	f0 e0       	ldi	r31, 0x00	; 0
    1136:	80 81       	ld	r24, Z
    1138:	80 68       	ori	r24, 0x80	; 128
    113a:	80 83       	st	Z, r24
    113c:	08 95       	ret

0000113e <serial_receive>:
    113e:	0e 94 5d 08 	call	0x10ba	; 0x10ba <_ZN15OrangutanSerial7receiveEhPch>
    1142:	08 95       	ret

00001144 <_ZN15OrangutanSerial11receiveRingEhPch>:
    1144:	58 2f       	mov	r21, r24
    1146:	82 30       	cpi	r24, 0x02	; 2
    1148:	51 f0       	breq	.+20     	; 0x115e <_ZN15OrangutanSerial11receiveRingEhPch+0x1a>
    114a:	88 23       	and	r24, r24
    114c:	19 f0       	breq	.+6      	; 0x1154 <_ZN15OrangutanSerial11receiveRingEhPch+0x10>
    114e:	e9 ec       	ldi	r30, 0xC9	; 201
    1150:	f0 e0       	ldi	r31, 0x00	; 0
    1152:	02 c0       	rjmp	.+4      	; 0x1158 <_ZN15OrangutanSerial11receiveRingEhPch+0x14>
    1154:	e1 ec       	ldi	r30, 0xC1	; 193
    1156:	f0 e0       	ldi	r31, 0x00	; 0
    1158:	80 81       	ld	r24, Z
    115a:	8f 77       	andi	r24, 0x7F	; 127
    115c:	80 83       	st	Z, r24
    115e:	25 2f       	mov	r18, r21
    1160:	30 e0       	ldi	r19, 0x00	; 0
    1162:	d9 01       	movw	r26, r18
    1164:	aa 0f       	add	r26, r26
    1166:	bb 1f       	adc	r27, r27
    1168:	c9 01       	movw	r24, r18
    116a:	e3 e0       	ldi	r30, 0x03	; 3
    116c:	88 0f       	add	r24, r24
    116e:	99 1f       	adc	r25, r25
    1170:	ea 95       	dec	r30
    1172:	e1 f7       	brne	.-8      	; 0x116c <_ZN15OrangutanSerial11receiveRingEhPch+0x28>
    1174:	a8 0f       	add	r26, r24
    1176:	b9 1f       	adc	r27, r25
    1178:	ac 5f       	subi	r26, 0xFC	; 252
    117a:	be 4f       	sbci	r27, 0xFE	; 254
    117c:	19 96       	adiw	r26, 0x09	; 9
    117e:	7c 93       	st	X, r23
    1180:	6e 93       	st	-X, r22
    1182:	18 97       	sbiw	r26, 0x08	; 8
    1184:	f9 01       	movw	r30, r18
    1186:	ee 0f       	add	r30, r30
    1188:	ff 1f       	adc	r31, r31
    118a:	ee 0f       	add	r30, r30
    118c:	ff 1f       	adc	r31, r31
    118e:	e2 0f       	add	r30, r18
    1190:	f3 1f       	adc	r31, r19
    1192:	ee 0f       	add	r30, r30
    1194:	ff 1f       	adc	r31, r31
    1196:	ea 5f       	subi	r30, 0xFA	; 250
    1198:	fe 4f       	sbci	r31, 0xFE	; 254
    119a:	10 82       	st	Z, r1
    119c:	14 96       	adiw	r26, 0x04	; 4
    119e:	4c 93       	st	X, r20
    11a0:	14 97       	sbiw	r26, 0x04	; 4
    11a2:	81 e0       	ldi	r24, 0x01	; 1
    11a4:	15 96       	adiw	r26, 0x05	; 5
    11a6:	8c 93       	st	X, r24
    11a8:	15 97       	sbiw	r26, 0x05	; 5
    11aa:	52 30       	cpi	r21, 0x02	; 2
    11ac:	69 f0       	breq	.+26     	; 0x11c8 <_ZN15OrangutanSerial11receiveRingEhPch+0x84>
    11ae:	8c 91       	ld	r24, X
    11b0:	88 23       	and	r24, r24
    11b2:	51 f4       	brne	.+20     	; 0x11c8 <_ZN15OrangutanSerial11receiveRingEhPch+0x84>
    11b4:	55 23       	and	r21, r21
    11b6:	19 f0       	breq	.+6      	; 0x11be <_ZN15OrangutanSerial11receiveRingEhPch+0x7a>
    11b8:	e9 ec       	ldi	r30, 0xC9	; 201
    11ba:	f0 e0       	ldi	r31, 0x00	; 0
    11bc:	02 c0       	rjmp	.+4      	; 0x11c2 <_ZN15OrangutanSerial11receiveRingEhPch+0x7e>
    11be:	e1 ec       	ldi	r30, 0xC1	; 193
    11c0:	f0 e0       	ldi	r31, 0x00	; 0
    11c2:	80 81       	ld	r24, Z
    11c4:	80 68       	ori	r24, 0x80	; 128
    11c6:	80 83       	st	Z, r24
    11c8:	08 95       	ret

000011ca <serial_receive_ring>:
    11ca:	0e 94 a2 08 	call	0x1144	; 0x1144 <_ZN15OrangutanSerial11receiveRingEhPch>
    11ce:	08 95       	ret

000011d0 <_ZN15OrangutanSerial13cancelReceiveEh>:
    11d0:	60 e0       	ldi	r22, 0x00	; 0
    11d2:	70 e0       	ldi	r23, 0x00	; 0
    11d4:	40 e0       	ldi	r20, 0x00	; 0
    11d6:	0e 94 5d 08 	call	0x10ba	; 0x10ba <_ZN15OrangutanSerial7receiveEhPch>
    11da:	08 95       	ret

000011dc <serial_cancel_receive>:
    11dc:	0e 94 e8 08 	call	0x11d0	; 0x11d0 <_ZN15OrangutanSerial13cancelReceiveEh>
    11e0:	08 95       	ret

000011e2 <__vector_20>:
    11e2:	1f 92       	push	r1
    11e4:	0f 92       	push	r0
    11e6:	0f b6       	in	r0, 0x3f	; 63
    11e8:	0f 92       	push	r0
    11ea:	0b b6       	in	r0, 0x3b	; 59
    11ec:	0f 92       	push	r0
    11ee:	11 24       	eor	r1, r1
    11f0:	2f 93       	push	r18
    11f2:	8f 93       	push	r24
    11f4:	9f 93       	push	r25
    11f6:	ef 93       	push	r30
    11f8:	ff 93       	push	r31
    11fa:	20 91 c6 00 	lds	r18, 0x00C6
    11fe:	e0 91 0c 01 	lds	r30, 0x010C
    1202:	f0 91 0d 01 	lds	r31, 0x010D
    1206:	30 97       	sbiw	r30, 0x00	; 0
    1208:	81 f0       	breq	.+32     	; 0x122a <__vector_20+0x48>
    120a:	90 91 06 01 	lds	r25, 0x0106
    120e:	80 91 08 01 	lds	r24, 0x0108
    1212:	98 17       	cp	r25, r24
    1214:	50 f4       	brcc	.+20     	; 0x122a <__vector_20+0x48>
    1216:	80 91 06 01 	lds	r24, 0x0106
    121a:	e8 0f       	add	r30, r24
    121c:	f1 1d       	adc	r31, r1
    121e:	20 83       	st	Z, r18
    1220:	80 91 06 01 	lds	r24, 0x0106
    1224:	8f 5f       	subi	r24, 0xFF	; 255
    1226:	80 93 06 01 	sts	0x0106, r24
    122a:	90 91 06 01 	lds	r25, 0x0106
    122e:	80 91 08 01 	lds	r24, 0x0108
    1232:	98 17       	cp	r25, r24
    1234:	31 f4       	brne	.+12     	; 0x1242 <__vector_20+0x60>
    1236:	80 91 09 01 	lds	r24, 0x0109
    123a:	88 23       	and	r24, r24
    123c:	11 f0       	breq	.+4      	; 0x1242 <__vector_20+0x60>
    123e:	10 92 06 01 	sts	0x0106, r1
    1242:	ff 91       	pop	r31
    1244:	ef 91       	pop	r30
    1246:	9f 91       	pop	r25
    1248:	8f 91       	pop	r24
    124a:	2f 91       	pop	r18
    124c:	0f 90       	pop	r0
    124e:	0b be       	out	0x3b, r0	; 59
    1250:	0f 90       	pop	r0
    1252:	0f be       	out	0x3f, r0	; 63
    1254:	0f 90       	pop	r0
    1256:	1f 90       	pop	r1
    1258:	18 95       	reti

0000125a <__vector_28>:
    125a:	1f 92       	push	r1
    125c:	0f 92       	push	r0
    125e:	0f b6       	in	r0, 0x3f	; 63
    1260:	0f 92       	push	r0
    1262:	0b b6       	in	r0, 0x3b	; 59
    1264:	0f 92       	push	r0
    1266:	11 24       	eor	r1, r1
    1268:	2f 93       	push	r18
    126a:	8f 93       	push	r24
    126c:	9f 93       	push	r25
    126e:	ef 93       	push	r30
    1270:	ff 93       	push	r31
    1272:	20 91 ce 00 	lds	r18, 0x00CE
    1276:	e0 91 16 01 	lds	r30, 0x0116
    127a:	f0 91 17 01 	lds	r31, 0x0117
    127e:	30 97       	sbiw	r30, 0x00	; 0
    1280:	81 f0       	breq	.+32     	; 0x12a2 <__vector_28+0x48>
    1282:	90 91 10 01 	lds	r25, 0x0110
    1286:	80 91 12 01 	lds	r24, 0x0112
    128a:	98 17       	cp	r25, r24
    128c:	50 f4       	brcc	.+20     	; 0x12a2 <__vector_28+0x48>
    128e:	80 91 10 01 	lds	r24, 0x0110
    1292:	e8 0f       	add	r30, r24
    1294:	f1 1d       	adc	r31, r1
    1296:	20 83       	st	Z, r18
    1298:	80 91 10 01 	lds	r24, 0x0110
    129c:	8f 5f       	subi	r24, 0xFF	; 255
    129e:	80 93 10 01 	sts	0x0110, r24
    12a2:	90 91 10 01 	lds	r25, 0x0110
    12a6:	80 91 12 01 	lds	r24, 0x0112
    12aa:	98 17       	cp	r25, r24
    12ac:	31 f4       	brne	.+12     	; 0x12ba <__vector_28+0x60>
    12ae:	80 91 13 01 	lds	r24, 0x0113
    12b2:	88 23       	and	r24, r24
    12b4:	11 f0       	breq	.+4      	; 0x12ba <__vector_28+0x60>
    12b6:	10 92 10 01 	sts	0x0110, r1
    12ba:	ff 91       	pop	r31
    12bc:	ef 91       	pop	r30
    12be:	9f 91       	pop	r25
    12c0:	8f 91       	pop	r24
    12c2:	2f 91       	pop	r18
    12c4:	0f 90       	pop	r0
    12c6:	0b be       	out	0x3b, r0	; 59
    12c8:	0f 90       	pop	r0
    12ca:	0f be       	out	0x3f, r0	; 63
    12cc:	0f 90       	pop	r0
    12ce:	1f 90       	pop	r1
    12d0:	18 95       	reti

000012d2 <_ZN15OrangutanSerial11uart_tx_isrEh>:
    12d2:	cf 93       	push	r28
    12d4:	df 93       	push	r29
    12d6:	38 2f       	mov	r19, r24
    12d8:	90 e0       	ldi	r25, 0x00	; 0
    12da:	fc 01       	movw	r30, r24
    12dc:	53 e0       	ldi	r21, 0x03	; 3
    12de:	ee 0f       	add	r30, r30
    12e0:	ff 1f       	adc	r31, r31
    12e2:	5a 95       	dec	r21
    12e4:	e1 f7       	brne	.-8      	; 0x12de <_ZN15OrangutanSerial11uart_tx_isrEh+0xc>
    12e6:	88 0f       	add	r24, r24
    12e8:	99 1f       	adc	r25, r25
    12ea:	e8 0f       	add	r30, r24
    12ec:	f9 1f       	adc	r31, r25
    12ee:	ec 5f       	subi	r30, 0xFC	; 252
    12f0:	fe 4f       	sbci	r31, 0xFE	; 254
    12f2:	a6 81       	ldd	r26, Z+6	; 0x06
    12f4:	b7 81       	ldd	r27, Z+7	; 0x07
    12f6:	10 97       	sbiw	r26, 0x00	; 0
    12f8:	09 f4       	brne	.+2      	; 0x12fc <_ZN15OrangutanSerial11uart_tx_isrEh+0x2a>
    12fa:	64 c0       	rjmp	.+200    	; 0x13c4 <_ZN15OrangutanSerial11uart_tx_isrEh+0xf2>
    12fc:	83 2f       	mov	r24, r19
    12fe:	90 e0       	ldi	r25, 0x00	; 0
    1300:	fc 01       	movw	r30, r24
    1302:	23 e0       	ldi	r18, 0x03	; 3
    1304:	ee 0f       	add	r30, r30
    1306:	ff 1f       	adc	r31, r31
    1308:	2a 95       	dec	r18
    130a:	e1 f7       	brne	.-8      	; 0x1304 <_ZN15OrangutanSerial11uart_tx_isrEh+0x32>
    130c:	88 0f       	add	r24, r24
    130e:	99 1f       	adc	r25, r25
    1310:	e8 0f       	add	r30, r24
    1312:	f9 1f       	adc	r31, r25
    1314:	ec 5f       	subi	r30, 0xFC	; 252
    1316:	fe 4f       	sbci	r31, 0xFE	; 254
    1318:	21 81       	ldd	r18, Z+1	; 0x01
    131a:	83 2f       	mov	r24, r19
    131c:	90 e0       	ldi	r25, 0x00	; 0
    131e:	fc 01       	movw	r30, r24
    1320:	63 e0       	ldi	r22, 0x03	; 3
    1322:	ee 0f       	add	r30, r30
    1324:	ff 1f       	adc	r31, r31
    1326:	6a 95       	dec	r22
    1328:	e1 f7       	brne	.-8      	; 0x1322 <_ZN15OrangutanSerial11uart_tx_isrEh+0x50>
    132a:	88 0f       	add	r24, r24
    132c:	99 1f       	adc	r25, r25
    132e:	e8 0f       	add	r30, r24
    1330:	f9 1f       	adc	r31, r25
    1332:	ec 5f       	subi	r30, 0xFC	; 252
    1334:	fe 4f       	sbci	r31, 0xFE	; 254
    1336:	83 81       	ldd	r24, Z+3	; 0x03
    1338:	28 17       	cp	r18, r24
    133a:	08 f0       	brcs	.+2      	; 0x133e <_ZN15OrangutanSerial11uart_tx_isrEh+0x6c>
    133c:	43 c0       	rjmp	.+134    	; 0x13c4 <_ZN15OrangutanSerial11uart_tx_isrEh+0xf2>
    133e:	33 23       	and	r19, r19
    1340:	19 f0       	breq	.+6      	; 0x1348 <_ZN15OrangutanSerial11uart_tx_isrEh+0x76>
    1342:	e8 ec       	ldi	r30, 0xC8	; 200
    1344:	f0 e0       	ldi	r31, 0x00	; 0
    1346:	02 c0       	rjmp	.+4      	; 0x134c <_ZN15OrangutanSerial11uart_tx_isrEh+0x7a>
    1348:	e0 ec       	ldi	r30, 0xC0	; 192
    134a:	f0 e0       	ldi	r31, 0x00	; 0
    134c:	80 81       	ld	r24, Z
    134e:	85 ff       	sbrs	r24, 5
    1350:	39 c0       	rjmp	.+114    	; 0x13c4 <_ZN15OrangutanSerial11uart_tx_isrEh+0xf2>
    1352:	33 23       	and	r19, r19
    1354:	19 f0       	breq	.+6      	; 0x135c <_ZN15OrangutanSerial11uart_tx_isrEh+0x8a>
    1356:	ce ec       	ldi	r28, 0xCE	; 206
    1358:	d0 e0       	ldi	r29, 0x00	; 0
    135a:	02 c0       	rjmp	.+4      	; 0x1360 <_ZN15OrangutanSerial11uart_tx_isrEh+0x8e>
    135c:	c6 ec       	ldi	r28, 0xC6	; 198
    135e:	d0 e0       	ldi	r29, 0x00	; 0
    1360:	83 2f       	mov	r24, r19
    1362:	90 e0       	ldi	r25, 0x00	; 0
    1364:	fc 01       	movw	r30, r24
    1366:	43 e0       	ldi	r20, 0x03	; 3
    1368:	ee 0f       	add	r30, r30
    136a:	ff 1f       	adc	r31, r31
    136c:	4a 95       	dec	r20
    136e:	e1 f7       	brne	.-8      	; 0x1368 <_ZN15OrangutanSerial11uart_tx_isrEh+0x96>
    1370:	88 0f       	add	r24, r24
    1372:	99 1f       	adc	r25, r25
    1374:	e8 0f       	add	r30, r24
    1376:	f9 1f       	adc	r31, r25
    1378:	ec 5f       	subi	r30, 0xFC	; 252
    137a:	fe 4f       	sbci	r31, 0xFE	; 254
    137c:	81 81       	ldd	r24, Z+1	; 0x01
    137e:	a8 0f       	add	r26, r24
    1380:	b1 1d       	adc	r27, r1
    1382:	8c 91       	ld	r24, X
    1384:	88 83       	st	Y, r24
    1386:	83 2f       	mov	r24, r19
    1388:	90 e0       	ldi	r25, 0x00	; 0
    138a:	fc 01       	movw	r30, r24
    138c:	73 e0       	ldi	r23, 0x03	; 3
    138e:	ee 0f       	add	r30, r30
    1390:	ff 1f       	adc	r31, r31
    1392:	7a 95       	dec	r23
    1394:	e1 f7       	brne	.-8      	; 0x138e <_ZN15OrangutanSerial11uart_tx_isrEh+0xbc>
    1396:	88 0f       	add	r24, r24
    1398:	99 1f       	adc	r25, r25
    139a:	e8 0f       	add	r30, r24
    139c:	f9 1f       	adc	r31, r25
    139e:	ec 5f       	subi	r30, 0xFC	; 252
    13a0:	fe 4f       	sbci	r31, 0xFE	; 254
    13a2:	21 81       	ldd	r18, Z+1	; 0x01
    13a4:	2f 5f       	subi	r18, 0xFF	; 255
    13a6:	83 2f       	mov	r24, r19
    13a8:	90 e0       	ldi	r25, 0x00	; 0
    13aa:	fc 01       	movw	r30, r24
    13ac:	53 e0       	ldi	r21, 0x03	; 3
    13ae:	ee 0f       	add	r30, r30
    13b0:	ff 1f       	adc	r31, r31
    13b2:	5a 95       	dec	r21
    13b4:	e1 f7       	brne	.-8      	; 0x13ae <_ZN15OrangutanSerial11uart_tx_isrEh+0xdc>
    13b6:	88 0f       	add	r24, r24
    13b8:	99 1f       	adc	r25, r25
    13ba:	e8 0f       	add	r30, r24
    13bc:	f9 1f       	adc	r31, r25
    13be:	ec 5f       	subi	r30, 0xFC	; 252
    13c0:	fe 4f       	sbci	r31, 0xFE	; 254
    13c2:	21 83       	std	Z+1, r18	; 0x01
    13c4:	83 2f       	mov	r24, r19
    13c6:	90 e0       	ldi	r25, 0x00	; 0
    13c8:	fc 01       	movw	r30, r24
    13ca:	b3 e0       	ldi	r27, 0x03	; 3
    13cc:	ee 0f       	add	r30, r30
    13ce:	ff 1f       	adc	r31, r31
    13d0:	ba 95       	dec	r27
    13d2:	e1 f7       	brne	.-8      	; 0x13cc <_ZN15OrangutanSerial11uart_tx_isrEh+0xfa>
    13d4:	88 0f       	add	r24, r24
    13d6:	99 1f       	adc	r25, r25
    13d8:	e8 0f       	add	r30, r24
    13da:	f9 1f       	adc	r31, r25
    13dc:	ec 5f       	subi	r30, 0xFC	; 252
    13de:	fe 4f       	sbci	r31, 0xFE	; 254
    13e0:	86 81       	ldd	r24, Z+6	; 0x06
    13e2:	97 81       	ldd	r25, Z+7	; 0x07
    13e4:	89 2b       	or	r24, r25
    13e6:	09 f4       	brne	.+2      	; 0x13ea <_ZN15OrangutanSerial11uart_tx_isrEh+0x118>
    13e8:	43 c0       	rjmp	.+134    	; 0x1470 <_ZN15OrangutanSerial11uart_tx_isrEh+0x19e>
    13ea:	83 2f       	mov	r24, r19
    13ec:	90 e0       	ldi	r25, 0x00	; 0
    13ee:	fc 01       	movw	r30, r24
    13f0:	73 e0       	ldi	r23, 0x03	; 3
    13f2:	ee 0f       	add	r30, r30
    13f4:	ff 1f       	adc	r31, r31
    13f6:	7a 95       	dec	r23
    13f8:	e1 f7       	brne	.-8      	; 0x13f2 <_ZN15OrangutanSerial11uart_tx_isrEh+0x120>
    13fa:	88 0f       	add	r24, r24
    13fc:	99 1f       	adc	r25, r25
    13fe:	e8 0f       	add	r30, r24
    1400:	f9 1f       	adc	r31, r25
    1402:	ec 5f       	subi	r30, 0xFC	; 252
    1404:	fe 4f       	sbci	r31, 0xFE	; 254
    1406:	21 81       	ldd	r18, Z+1	; 0x01
    1408:	83 2f       	mov	r24, r19
    140a:	90 e0       	ldi	r25, 0x00	; 0
    140c:	fc 01       	movw	r30, r24
    140e:	53 e0       	ldi	r21, 0x03	; 3
    1410:	ee 0f       	add	r30, r30
    1412:	ff 1f       	adc	r31, r31
    1414:	5a 95       	dec	r21
    1416:	e1 f7       	brne	.-8      	; 0x1410 <_ZN15OrangutanSerial11uart_tx_isrEh+0x13e>
    1418:	88 0f       	add	r24, r24
    141a:	99 1f       	adc	r25, r25
    141c:	e8 0f       	add	r30, r24
    141e:	f9 1f       	adc	r31, r25
    1420:	ec 5f       	subi	r30, 0xFC	; 252
    1422:	fe 4f       	sbci	r31, 0xFE	; 254
    1424:	83 81       	ldd	r24, Z+3	; 0x03
    1426:	28 17       	cp	r18, r24
    1428:	18 f5       	brcc	.+70     	; 0x1470 <_ZN15OrangutanSerial11uart_tx_isrEh+0x19e>
    142a:	83 2f       	mov	r24, r19
    142c:	90 e0       	ldi	r25, 0x00	; 0
    142e:	fc 01       	movw	r30, r24
    1430:	b3 e0       	ldi	r27, 0x03	; 3
    1432:	ee 0f       	add	r30, r30
    1434:	ff 1f       	adc	r31, r31
    1436:	ba 95       	dec	r27
    1438:	e1 f7       	brne	.-8      	; 0x1432 <_ZN15OrangutanSerial11uart_tx_isrEh+0x160>
    143a:	88 0f       	add	r24, r24
    143c:	99 1f       	adc	r25, r25
    143e:	e8 0f       	add	r30, r24
    1440:	f9 1f       	adc	r31, r25
    1442:	ec 5f       	subi	r30, 0xFC	; 252
    1444:	fe 4f       	sbci	r31, 0xFE	; 254
    1446:	80 81       	ld	r24, Z
    1448:	88 23       	and	r24, r24
    144a:	91 f4       	brne	.+36     	; 0x1470 <_ZN15OrangutanSerial11uart_tx_isrEh+0x19e>
    144c:	33 23       	and	r19, r19
    144e:	19 f0       	breq	.+6      	; 0x1456 <_ZN15OrangutanSerial11uart_tx_isrEh+0x184>
    1450:	e9 ec       	ldi	r30, 0xC9	; 201
    1452:	f0 e0       	ldi	r31, 0x00	; 0
    1454:	02 c0       	rjmp	.+4      	; 0x145a <_ZN15OrangutanSerial11uart_tx_isrEh+0x188>
    1456:	e1 ec       	ldi	r30, 0xC1	; 193
    1458:	f0 e0       	ldi	r31, 0x00	; 0
    145a:	80 81       	ld	r24, Z
    145c:	80 62       	ori	r24, 0x20	; 32
    145e:	04 c0       	rjmp	.+8      	; 0x1468 <_ZN15OrangutanSerial11uart_tx_isrEh+0x196>
    1460:	e9 ec       	ldi	r30, 0xC9	; 201
    1462:	f0 e0       	ldi	r31, 0x00	; 0
    1464:	80 81       	ld	r24, Z
    1466:	8f 7d       	andi	r24, 0xDF	; 223
    1468:	80 83       	st	Z, r24
    146a:	df 91       	pop	r29
    146c:	cf 91       	pop	r28
    146e:	08 95       	ret
    1470:	33 23       	and	r19, r19
    1472:	b1 f7       	brne	.-20     	; 0x1460 <_ZN15OrangutanSerial11uart_tx_isrEh+0x18e>
    1474:	e1 ec       	ldi	r30, 0xC1	; 193
    1476:	f0 e0       	ldi	r31, 0x00	; 0
    1478:	f5 cf       	rjmp	.-22     	; 0x1464 <_ZN15OrangutanSerial11uart_tx_isrEh+0x192>

0000147a <_ZN15OrangutanSerial4sendEhPch>:
    147a:	28 2f       	mov	r18, r24
    147c:	90 e0       	ldi	r25, 0x00	; 0
    147e:	fc 01       	movw	r30, r24
    1480:	53 e0       	ldi	r21, 0x03	; 3
    1482:	ee 0f       	add	r30, r30
    1484:	ff 1f       	adc	r31, r31
    1486:	5a 95       	dec	r21
    1488:	e1 f7       	brne	.-8      	; 0x1482 <_ZN15OrangutanSerial4sendEhPch+0x8>
    148a:	88 0f       	add	r24, r24
    148c:	99 1f       	adc	r25, r25
    148e:	e8 0f       	add	r30, r24
    1490:	f9 1f       	adc	r31, r25
    1492:	ec 5f       	subi	r30, 0xFC	; 252
    1494:	fe 4f       	sbci	r31, 0xFE	; 254
    1496:	77 83       	std	Z+7, r23	; 0x07
    1498:	66 83       	std	Z+6, r22	; 0x06
    149a:	82 2f       	mov	r24, r18
    149c:	90 e0       	ldi	r25, 0x00	; 0
    149e:	fc 01       	movw	r30, r24
    14a0:	b3 e0       	ldi	r27, 0x03	; 3
    14a2:	ee 0f       	add	r30, r30
    14a4:	ff 1f       	adc	r31, r31
    14a6:	ba 95       	dec	r27
    14a8:	e1 f7       	brne	.-8      	; 0x14a2 <_ZN15OrangutanSerial4sendEhPch+0x28>
    14aa:	88 0f       	add	r24, r24
    14ac:	99 1f       	adc	r25, r25
    14ae:	e8 0f       	add	r30, r24
    14b0:	f9 1f       	adc	r31, r25
    14b2:	ec 5f       	subi	r30, 0xFC	; 252
    14b4:	fe 4f       	sbci	r31, 0xFE	; 254
    14b6:	11 82       	std	Z+1, r1	; 0x01
    14b8:	82 2f       	mov	r24, r18
    14ba:	90 e0       	ldi	r25, 0x00	; 0
    14bc:	fc 01       	movw	r30, r24
    14be:	73 e0       	ldi	r23, 0x03	; 3
    14c0:	ee 0f       	add	r30, r30
    14c2:	ff 1f       	adc	r31, r31
    14c4:	7a 95       	dec	r23
    14c6:	e1 f7       	brne	.-8      	; 0x14c0 <_ZN15OrangutanSerial4sendEhPch+0x46>
    14c8:	88 0f       	add	r24, r24
    14ca:	99 1f       	adc	r25, r25
    14cc:	e8 0f       	add	r30, r24
    14ce:	f9 1f       	adc	r31, r25
    14d0:	ec 5f       	subi	r30, 0xFC	; 252
    14d2:	fe 4f       	sbci	r31, 0xFE	; 254
    14d4:	43 83       	std	Z+3, r20	; 0x03
    14d6:	22 30       	cpi	r18, 0x02	; 2
    14d8:	09 f4       	brne	.+2      	; 0x14dc <_ZN15OrangutanSerial4sendEhPch+0x62>
    14da:	49 c0       	rjmp	.+146    	; 0x156e <_ZN15OrangutanSerial4sendEhPch+0xf4>
    14dc:	82 2f       	mov	r24, r18
    14de:	90 e0       	ldi	r25, 0x00	; 0
    14e0:	fc 01       	movw	r30, r24
    14e2:	53 e0       	ldi	r21, 0x03	; 3
    14e4:	ee 0f       	add	r30, r30
    14e6:	ff 1f       	adc	r31, r31
    14e8:	5a 95       	dec	r21
    14ea:	e1 f7       	brne	.-8      	; 0x14e4 <_ZN15OrangutanSerial4sendEhPch+0x6a>
    14ec:	88 0f       	add	r24, r24
    14ee:	99 1f       	adc	r25, r25
    14f0:	e8 0f       	add	r30, r24
    14f2:	f9 1f       	adc	r31, r25
    14f4:	ec 5f       	subi	r30, 0xFC	; 252
    14f6:	fe 4f       	sbci	r31, 0xFE	; 254
    14f8:	86 81       	ldd	r24, Z+6	; 0x06
    14fa:	97 81       	ldd	r25, Z+7	; 0x07
    14fc:	89 2b       	or	r24, r25
    14fe:	91 f1       	breq	.+100    	; 0x1564 <_ZN15OrangutanSerial4sendEhPch+0xea>
    1500:	82 2f       	mov	r24, r18
    1502:	90 e0       	ldi	r25, 0x00	; 0
    1504:	fc 01       	movw	r30, r24
    1506:	b3 e0       	ldi	r27, 0x03	; 3
    1508:	ee 0f       	add	r30, r30
    150a:	ff 1f       	adc	r31, r31
    150c:	ba 95       	dec	r27
    150e:	e1 f7       	brne	.-8      	; 0x1508 <_ZN15OrangutanSerial4sendEhPch+0x8e>
    1510:	88 0f       	add	r24, r24
    1512:	99 1f       	adc	r25, r25
    1514:	e8 0f       	add	r30, r24
    1516:	f9 1f       	adc	r31, r25
    1518:	ec 5f       	subi	r30, 0xFC	; 252
    151a:	fe 4f       	sbci	r31, 0xFE	; 254
    151c:	81 81       	ldd	r24, Z+1	; 0x01
    151e:	84 17       	cp	r24, r20
    1520:	08 f5       	brcc	.+66     	; 0x1564 <_ZN15OrangutanSerial4sendEhPch+0xea>
    1522:	82 2f       	mov	r24, r18
    1524:	90 e0       	ldi	r25, 0x00	; 0
    1526:	fc 01       	movw	r30, r24
    1528:	73 e0       	ldi	r23, 0x03	; 3
    152a:	ee 0f       	add	r30, r30
    152c:	ff 1f       	adc	r31, r31
    152e:	7a 95       	dec	r23
    1530:	e1 f7       	brne	.-8      	; 0x152a <_ZN15OrangutanSerial4sendEhPch+0xb0>
    1532:	88 0f       	add	r24, r24
    1534:	99 1f       	adc	r25, r25
    1536:	e8 0f       	add	r30, r24
    1538:	f9 1f       	adc	r31, r25
    153a:	ec 5f       	subi	r30, 0xFC	; 252
    153c:	fe 4f       	sbci	r31, 0xFE	; 254
    153e:	80 81       	ld	r24, Z
    1540:	88 23       	and	r24, r24
    1542:	81 f4       	brne	.+32     	; 0x1564 <_ZN15OrangutanSerial4sendEhPch+0xea>
    1544:	22 23       	and	r18, r18
    1546:	19 f0       	breq	.+6      	; 0x154e <_ZN15OrangutanSerial4sendEhPch+0xd4>
    1548:	e9 ec       	ldi	r30, 0xC9	; 201
    154a:	f0 e0       	ldi	r31, 0x00	; 0
    154c:	02 c0       	rjmp	.+4      	; 0x1552 <_ZN15OrangutanSerial4sendEhPch+0xd8>
    154e:	e1 ec       	ldi	r30, 0xC1	; 193
    1550:	f0 e0       	ldi	r31, 0x00	; 0
    1552:	80 81       	ld	r24, Z
    1554:	80 62       	ori	r24, 0x20	; 32
    1556:	04 c0       	rjmp	.+8      	; 0x1560 <_ZN15OrangutanSerial4sendEhPch+0xe6>
    1558:	e9 ec       	ldi	r30, 0xC9	; 201
    155a:	f0 e0       	ldi	r31, 0x00	; 0
    155c:	80 81       	ld	r24, Z
    155e:	8f 7d       	andi	r24, 0xDF	; 223
    1560:	80 83       	st	Z, r24
    1562:	08 95       	ret
    1564:	22 23       	and	r18, r18
    1566:	c1 f7       	brne	.-16     	; 0x1558 <_ZN15OrangutanSerial4sendEhPch+0xde>
    1568:	e1 ec       	ldi	r30, 0xC1	; 193
    156a:	f0 e0       	ldi	r31, 0x00	; 0
    156c:	f7 cf       	rjmp	.-18     	; 0x155c <_ZN15OrangutanSerial4sendEhPch+0xe2>
    156e:	08 95       	ret

00001570 <serial_send>:
    1570:	0e 94 3d 0a 	call	0x147a	; 0x147a <_ZN15OrangutanSerial4sendEhPch>
    1574:	08 95       	ret

00001576 <__vector_21>:
    1576:	1f 92       	push	r1
    1578:	0f 92       	push	r0
    157a:	0f b6       	in	r0, 0x3f	; 63
    157c:	0f 92       	push	r0
    157e:	0b b6       	in	r0, 0x3b	; 59
    1580:	0f 92       	push	r0
    1582:	11 24       	eor	r1, r1
    1584:	2f 93       	push	r18
    1586:	3f 93       	push	r19
    1588:	4f 93       	push	r20
    158a:	5f 93       	push	r21
    158c:	6f 93       	push	r22
    158e:	7f 93       	push	r23
    1590:	8f 93       	push	r24
    1592:	9f 93       	push	r25
    1594:	af 93       	push	r26
    1596:	bf 93       	push	r27
    1598:	ef 93       	push	r30
    159a:	ff 93       	push	r31
    159c:	80 e0       	ldi	r24, 0x00	; 0
    159e:	0e 94 69 09 	call	0x12d2	; 0x12d2 <_ZN15OrangutanSerial11uart_tx_isrEh>
    15a2:	ff 91       	pop	r31
    15a4:	ef 91       	pop	r30
    15a6:	bf 91       	pop	r27
    15a8:	af 91       	pop	r26
    15aa:	9f 91       	pop	r25
    15ac:	8f 91       	pop	r24
    15ae:	7f 91       	pop	r23
    15b0:	6f 91       	pop	r22
    15b2:	5f 91       	pop	r21
    15b4:	4f 91       	pop	r20
    15b6:	3f 91       	pop	r19
    15b8:	2f 91       	pop	r18
    15ba:	0f 90       	pop	r0
    15bc:	0b be       	out	0x3b, r0	; 59
    15be:	0f 90       	pop	r0
    15c0:	0f be       	out	0x3f, r0	; 63
    15c2:	0f 90       	pop	r0
    15c4:	1f 90       	pop	r1
    15c6:	18 95       	reti

000015c8 <__vector_29>:
    15c8:	1f 92       	push	r1
    15ca:	0f 92       	push	r0
    15cc:	0f b6       	in	r0, 0x3f	; 63
    15ce:	0f 92       	push	r0
    15d0:	0b b6       	in	r0, 0x3b	; 59
    15d2:	0f 92       	push	r0
    15d4:	11 24       	eor	r1, r1
    15d6:	2f 93       	push	r18
    15d8:	3f 93       	push	r19
    15da:	4f 93       	push	r20
    15dc:	5f 93       	push	r21
    15de:	6f 93       	push	r22
    15e0:	7f 93       	push	r23
    15e2:	8f 93       	push	r24
    15e4:	9f 93       	push	r25
    15e6:	af 93       	push	r26
    15e8:	bf 93       	push	r27
    15ea:	ef 93       	push	r30
    15ec:	ff 93       	push	r31
    15ee:	81 e0       	ldi	r24, 0x01	; 1
    15f0:	0e 94 69 09 	call	0x12d2	; 0x12d2 <_ZN15OrangutanSerial11uart_tx_isrEh>
    15f4:	ff 91       	pop	r31
    15f6:	ef 91       	pop	r30
    15f8:	bf 91       	pop	r27
    15fa:	af 91       	pop	r26
    15fc:	9f 91       	pop	r25
    15fe:	8f 91       	pop	r24
    1600:	7f 91       	pop	r23
    1602:	6f 91       	pop	r22
    1604:	5f 91       	pop	r21
    1606:	4f 91       	pop	r20
    1608:	3f 91       	pop	r19
    160a:	2f 91       	pop	r18
    160c:	0f 90       	pop	r0
    160e:	0b be       	out	0x3b, r0	; 59
    1610:	0f 90       	pop	r0
    1612:	0f be       	out	0x3f, r0	; 63
    1614:	0f 90       	pop	r0
    1616:	1f 90       	pop	r1
    1618:	18 95       	reti

0000161a <_ZN15OrangutanSerial15serial_tx_checkEh>:
    161a:	98 2f       	mov	r25, r24
    161c:	82 30       	cpi	r24, 0x02	; 2
    161e:	71 f0       	breq	.+28     	; 0x163c <_ZN15OrangutanSerial15serial_tx_checkEh+0x22>
    1620:	88 23       	and	r24, r24
    1622:	19 f0       	breq	.+6      	; 0x162a <_ZN15OrangutanSerial15serial_tx_checkEh+0x10>
    1624:	e9 ec       	ldi	r30, 0xC9	; 201
    1626:	f0 e0       	ldi	r31, 0x00	; 0
    1628:	02 c0       	rjmp	.+4      	; 0x162e <_ZN15OrangutanSerial15serial_tx_checkEh+0x14>
    162a:	e1 ec       	ldi	r30, 0xC1	; 193
    162c:	f0 e0       	ldi	r31, 0x00	; 0
    162e:	80 81       	ld	r24, Z
    1630:	8f 7d       	andi	r24, 0xDF	; 223
    1632:	80 83       	st	Z, r24
    1634:	89 2f       	mov	r24, r25
    1636:	0e 94 69 09 	call	0x12d2	; 0x12d2 <_ZN15OrangutanSerial11uart_tx_isrEh>
    163a:	08 95       	ret
    163c:	e0 91 1e 01 	lds	r30, 0x011E
    1640:	f0 91 1f 01 	lds	r31, 0x011F
    1644:	30 97       	sbiw	r30, 0x00	; 0
    1646:	b1 f0       	breq	.+44     	; 0x1674 <_ZN15OrangutanSerial15serial_tx_checkEh+0x5a>
    1648:	90 91 19 01 	lds	r25, 0x0119
    164c:	80 91 1b 01 	lds	r24, 0x011B
    1650:	98 17       	cp	r25, r24
    1652:	80 f4       	brcc	.+32     	; 0x1674 <_ZN15OrangutanSerial15serial_tx_checkEh+0x5a>
    1654:	06 c0       	rjmp	.+12     	; 0x1662 <_ZN15OrangutanSerial15serial_tx_checkEh+0x48>
    1656:	80 91 19 01 	lds	r24, 0x0119
    165a:	8f 5f       	subi	r24, 0xFF	; 255
    165c:	80 93 19 01 	sts	0x0119, r24
    1660:	ed cf       	rjmp	.-38     	; 0x163c <_ZN15OrangutanSerial15serial_tx_checkEh+0x22>
    1662:	80 91 19 01 	lds	r24, 0x0119
    1666:	e8 0f       	add	r30, r24
    1668:	f1 1d       	adc	r31, r1
    166a:	80 81       	ld	r24, Z
    166c:	0e 94 ca 0d 	call	0x1b94	; 0x1b94 <_ZN12OrangutanSVP17serialSendIfReadyEc>
    1670:	88 23       	and	r24, r24
    1672:	89 f7       	brne	.-30     	; 0x1656 <_ZN15OrangutanSerial15serial_tx_checkEh+0x3c>
    1674:	08 95       	ret

00001676 <_ZN15OrangutanSerial15serial_rx_checkEh>:
    1676:	0f 93       	push	r16
    1678:	1f 93       	push	r17
    167a:	cf 93       	push	r28
    167c:	df 93       	push	r29
    167e:	68 2f       	mov	r22, r24
    1680:	82 30       	cpi	r24, 0x02	; 2
    1682:	09 f4       	brne	.+2      	; 0x1686 <_ZN15OrangutanSerial15serial_rx_checkEh+0x10>
    1684:	9c c0       	rjmp	.+312    	; 0x17be <_ZN15OrangutanSerial15serial_rx_checkEh+0x148>
    1686:	88 23       	and	r24, r24
    1688:	19 f0       	breq	.+6      	; 0x1690 <_ZN15OrangutanSerial15serial_rx_checkEh+0x1a>
    168a:	e9 ec       	ldi	r30, 0xC9	; 201
    168c:	f0 e0       	ldi	r31, 0x00	; 0
    168e:	02 c0       	rjmp	.+4      	; 0x1694 <_ZN15OrangutanSerial15serial_rx_checkEh+0x1e>
    1690:	e1 ec       	ldi	r30, 0xC1	; 193
    1692:	f0 e0       	ldi	r31, 0x00	; 0
    1694:	80 81       	ld	r24, Z
    1696:	8f 77       	andi	r24, 0x7F	; 127
    1698:	80 83       	st	Z, r24
    169a:	46 2f       	mov	r20, r22
    169c:	50 e0       	ldi	r21, 0x00	; 0
    169e:	da 01       	movw	r26, r20
    16a0:	aa 0f       	add	r26, r26
    16a2:	bb 1f       	adc	r27, r27
    16a4:	ca 01       	movw	r24, r20
    16a6:	23 e0       	ldi	r18, 0x03	; 3
    16a8:	88 0f       	add	r24, r24
    16aa:	99 1f       	adc	r25, r25
    16ac:	2a 95       	dec	r18
    16ae:	e1 f7       	brne	.-8      	; 0x16a8 <_ZN15OrangutanSerial15serial_rx_checkEh+0x32>
    16b0:	a8 0f       	add	r26, r24
    16b2:	b9 1f       	adc	r27, r25
    16b4:	ac 5f       	subi	r26, 0xFC	; 252
    16b6:	be 4f       	sbci	r27, 0xFE	; 254
    16b8:	18 96       	adiw	r26, 0x08	; 8
    16ba:	cd 91       	ld	r28, X+
    16bc:	dc 91       	ld	r29, X
    16be:	19 97       	sbiw	r26, 0x09	; 9
    16c0:	20 97       	sbiw	r28, 0x00	; 0
    16c2:	09 f4       	brne	.+2      	; 0x16c6 <_ZN15OrangutanSerial15serial_rx_checkEh+0x50>
    16c4:	5a c0       	rjmp	.+180    	; 0x177a <_ZN15OrangutanSerial15serial_rx_checkEh+0x104>
    16c6:	fa 01       	movw	r30, r20
    16c8:	ee 0f       	add	r30, r30
    16ca:	ff 1f       	adc	r31, r31
    16cc:	ee 0f       	add	r30, r30
    16ce:	ff 1f       	adc	r31, r31
    16d0:	e4 0f       	add	r30, r20
    16d2:	f5 1f       	adc	r31, r21
    16d4:	ee 0f       	add	r30, r30
    16d6:	ff 1f       	adc	r31, r31
    16d8:	ea 5f       	subi	r30, 0xFA	; 250
    16da:	fe 4f       	sbci	r31, 0xFE	; 254
    16dc:	80 81       	ld	r24, Z
    16de:	14 96       	adiw	r26, 0x04	; 4
    16e0:	2c 91       	ld	r18, X
    16e2:	82 17       	cp	r24, r18
    16e4:	08 f0       	brcs	.+2      	; 0x16e8 <_ZN15OrangutanSerial15serial_rx_checkEh+0x72>
    16e6:	49 c0       	rjmp	.+146    	; 0x177a <_ZN15OrangutanSerial15serial_rx_checkEh+0x104>
    16e8:	66 23       	and	r22, r22
    16ea:	19 f0       	breq	.+6      	; 0x16f2 <_ZN15OrangutanSerial15serial_rx_checkEh+0x7c>
    16ec:	e8 ec       	ldi	r30, 0xC8	; 200
    16ee:	f0 e0       	ldi	r31, 0x00	; 0
    16f0:	02 c0       	rjmp	.+4      	; 0x16f6 <_ZN15OrangutanSerial15serial_rx_checkEh+0x80>
    16f2:	e0 ec       	ldi	r30, 0xC0	; 192
    16f4:	f0 e0       	ldi	r31, 0x00	; 0
    16f6:	80 81       	ld	r24, Z
    16f8:	87 ff       	sbrs	r24, 7
    16fa:	3f c0       	rjmp	.+126    	; 0x177a <_ZN15OrangutanSerial15serial_rx_checkEh+0x104>
    16fc:	66 23       	and	r22, r22
    16fe:	19 f4       	brne	.+6      	; 0x1706 <_ZN15OrangutanSerial15serial_rx_checkEh+0x90>
    1700:	e6 ec       	ldi	r30, 0xC6	; 198
    1702:	f0 e0       	ldi	r31, 0x00	; 0
    1704:	02 c0       	rjmp	.+4      	; 0x170a <_ZN15OrangutanSerial15serial_rx_checkEh+0x94>
    1706:	ee ec       	ldi	r30, 0xCE	; 206
    1708:	f0 e0       	ldi	r31, 0x00	; 0
    170a:	90 81       	ld	r25, Z
    170c:	fa 01       	movw	r30, r20
    170e:	ee 0f       	add	r30, r30
    1710:	ff 1f       	adc	r31, r31
    1712:	ee 0f       	add	r30, r30
    1714:	ff 1f       	adc	r31, r31
    1716:	e4 0f       	add	r30, r20
    1718:	f5 1f       	adc	r31, r21
    171a:	ee 0f       	add	r30, r30
    171c:	ff 1f       	adc	r31, r31
    171e:	ea 5f       	subi	r30, 0xFA	; 250
    1720:	fe 4f       	sbci	r31, 0xFE	; 254
    1722:	80 81       	ld	r24, Z
    1724:	82 17       	cp	r24, r18
    1726:	38 f4       	brcc	.+14     	; 0x1736 <_ZN15OrangutanSerial15serial_rx_checkEh+0xc0>
    1728:	80 81       	ld	r24, Z
    172a:	c8 0f       	add	r28, r24
    172c:	d1 1d       	adc	r29, r1
    172e:	98 83       	st	Y, r25
    1730:	80 81       	ld	r24, Z
    1732:	8f 5f       	subi	r24, 0xFF	; 255
    1734:	80 83       	st	Z, r24
    1736:	fa 01       	movw	r30, r20
    1738:	ee 0f       	add	r30, r30
    173a:	ff 1f       	adc	r31, r31
    173c:	ee 0f       	add	r30, r30
    173e:	ff 1f       	adc	r31, r31
    1740:	e4 0f       	add	r30, r20
    1742:	f5 1f       	adc	r31, r21
    1744:	ee 0f       	add	r30, r30
    1746:	ff 1f       	adc	r31, r31
    1748:	ea 5f       	subi	r30, 0xFA	; 250
    174a:	fe 4f       	sbci	r31, 0xFE	; 254
    174c:	80 81       	ld	r24, Z
    174e:	da 01       	movw	r26, r20
    1750:	aa 0f       	add	r26, r26
    1752:	bb 1f       	adc	r27, r27
    1754:	9a 01       	movw	r18, r20
    1756:	13 e0       	ldi	r17, 0x03	; 3
    1758:	22 0f       	add	r18, r18
    175a:	33 1f       	adc	r19, r19
    175c:	1a 95       	dec	r17
    175e:	e1 f7       	brne	.-8      	; 0x1758 <_ZN15OrangutanSerial15serial_rx_checkEh+0xe2>
    1760:	a2 0f       	add	r26, r18
    1762:	b3 1f       	adc	r27, r19
    1764:	ac 5f       	subi	r26, 0xFC	; 252
    1766:	be 4f       	sbci	r27, 0xFE	; 254
    1768:	14 96       	adiw	r26, 0x04	; 4
    176a:	9c 91       	ld	r25, X
    176c:	14 97       	sbiw	r26, 0x04	; 4
    176e:	89 17       	cp	r24, r25
    1770:	21 f4       	brne	.+8      	; 0x177a <_ZN15OrangutanSerial15serial_rx_checkEh+0x104>
    1772:	15 96       	adiw	r26, 0x05	; 5
    1774:	8c 91       	ld	r24, X
    1776:	81 11       	cpse	r24, r1
    1778:	10 82       	st	Z, r1
    177a:	fa 01       	movw	r30, r20
    177c:	a3 e0       	ldi	r26, 0x03	; 3
    177e:	ee 0f       	add	r30, r30
    1780:	ff 1f       	adc	r31, r31
    1782:	aa 95       	dec	r26
    1784:	e1 f7       	brne	.-8      	; 0x177e <_ZN15OrangutanSerial15serial_rx_checkEh+0x108>
    1786:	44 0f       	add	r20, r20
    1788:	55 1f       	adc	r21, r21
    178a:	e4 0f       	add	r30, r20
    178c:	f5 1f       	adc	r31, r21
    178e:	ec 5f       	subi	r30, 0xFC	; 252
    1790:	fe 4f       	sbci	r31, 0xFE	; 254
    1792:	80 81       	ld	r24, Z
    1794:	88 23       	and	r24, r24
    1796:	09 f0       	breq	.+2      	; 0x179a <_ZN15OrangutanSerial15serial_rx_checkEh+0x124>
    1798:	59 c0       	rjmp	.+178    	; 0x184c <_ZN15OrangutanSerial15serial_rx_checkEh+0x1d6>
    179a:	66 23       	and	r22, r22
    179c:	19 f0       	breq	.+6      	; 0x17a4 <_ZN15OrangutanSerial15serial_rx_checkEh+0x12e>
    179e:	e9 ec       	ldi	r30, 0xC9	; 201
    17a0:	f0 e0       	ldi	r31, 0x00	; 0
    17a2:	02 c0       	rjmp	.+4      	; 0x17a8 <_ZN15OrangutanSerial15serial_rx_checkEh+0x132>
    17a4:	e1 ec       	ldi	r30, 0xC1	; 193
    17a6:	f0 e0       	ldi	r31, 0x00	; 0
    17a8:	80 81       	ld	r24, Z
    17aa:	80 68       	ori	r24, 0x80	; 128
    17ac:	80 83       	st	Z, r24
    17ae:	4e c0       	rjmp	.+156    	; 0x184c <_ZN15OrangutanSerial15serial_rx_checkEh+0x1d6>
    17b0:	80 91 1d 01 	lds	r24, 0x011D
    17b4:	88 23       	and	r24, r24
    17b6:	19 f0       	breq	.+6      	; 0x17be <_ZN15OrangutanSerial15serial_rx_checkEh+0x148>
    17b8:	10 92 1a 01 	sts	0x011A, r1
    17bc:	47 c0       	rjmp	.+142    	; 0x184c <_ZN15OrangutanSerial15serial_rx_checkEh+0x1d6>
    17be:	80 91 20 01 	lds	r24, 0x0120
    17c2:	90 91 21 01 	lds	r25, 0x0121
    17c6:	89 2b       	or	r24, r25
    17c8:	09 f4       	brne	.+2      	; 0x17cc <_ZN15OrangutanSerial15serial_rx_checkEh+0x156>
    17ca:	40 c0       	rjmp	.+128    	; 0x184c <_ZN15OrangutanSerial15serial_rx_checkEh+0x1d6>
    17cc:	90 91 1a 01 	lds	r25, 0x011A
    17d0:	80 91 1c 01 	lds	r24, 0x011C
    17d4:	98 17       	cp	r25, r24
    17d6:	d0 f5       	brcc	.+116    	; 0x184c <_ZN15OrangutanSerial15serial_rx_checkEh+0x1d6>
    17d8:	80 91 3c 01 	lds	r24, 0x013C
    17dc:	88 23       	and	r24, r24
    17de:	a9 f4       	brne	.+42     	; 0x180a <_ZN15OrangutanSerial15serial_rx_checkEh+0x194>
    17e0:	0e 94 3c 0e 	call	0x1c78	; 0x1c78 <_ZN12OrangutanSVP15serialReadStartEv>
    17e4:	80 93 3c 01 	sts	0x013C, r24
    17e8:	10 e0       	ldi	r17, 0x00	; 0
    17ea:	0b c0       	rjmp	.+22     	; 0x1802 <_ZN15OrangutanSerial15serial_rx_checkEh+0x18c>
    17ec:	0e 94 da 0d 	call	0x1bb4	; 0x1bb4 <_ZN12OrangutanSVP11getNextByteEv>
    17f0:	e0 2f       	mov	r30, r16
    17f2:	f0 e0       	ldi	r31, 0x00	; 0
    17f4:	31 97       	sbiw	r30, 0x01	; 1
    17f6:	e1 1b       	sub	r30, r17
    17f8:	f1 09       	sbc	r31, r1
    17fa:	e3 5c       	subi	r30, 0xC3	; 195
    17fc:	fe 4f       	sbci	r31, 0xFE	; 254
    17fe:	80 83       	st	Z, r24
    1800:	1f 5f       	subi	r17, 0xFF	; 255
    1802:	00 91 3c 01 	lds	r16, 0x013C
    1806:	10 17       	cp	r17, r16
    1808:	88 f3       	brcs	.-30     	; 0x17ec <_ZN15OrangutanSerial15serial_rx_checkEh+0x176>
    180a:	e0 91 3c 01 	lds	r30, 0x013C
    180e:	ee 23       	and	r30, r30
    1810:	e9 f0       	breq	.+58     	; 0x184c <_ZN15OrangutanSerial15serial_rx_checkEh+0x1d6>
    1812:	80 91 1a 01 	lds	r24, 0x011A
    1816:	a0 91 20 01 	lds	r26, 0x0120
    181a:	b0 91 21 01 	lds	r27, 0x0121
    181e:	a8 0f       	add	r26, r24
    1820:	b1 1d       	adc	r27, r1
    1822:	e1 50       	subi	r30, 0x01	; 1
    1824:	e0 93 3c 01 	sts	0x013C, r30
    1828:	f0 e0       	ldi	r31, 0x00	; 0
    182a:	e3 5c       	subi	r30, 0xC3	; 195
    182c:	fe 4f       	sbci	r31, 0xFE	; 254
    182e:	80 81       	ld	r24, Z
    1830:	8c 93       	st	X, r24
    1832:	80 91 1a 01 	lds	r24, 0x011A
    1836:	8f 5f       	subi	r24, 0xFF	; 255
    1838:	80 93 1a 01 	sts	0x011A, r24
    183c:	90 91 1a 01 	lds	r25, 0x011A
    1840:	80 91 1c 01 	lds	r24, 0x011C
    1844:	98 17       	cp	r25, r24
    1846:	09 f0       	breq	.+2      	; 0x184a <_ZN15OrangutanSerial15serial_rx_checkEh+0x1d4>
    1848:	ba cf       	rjmp	.-140    	; 0x17be <_ZN15OrangutanSerial15serial_rx_checkEh+0x148>
    184a:	b2 cf       	rjmp	.-156    	; 0x17b0 <_ZN15OrangutanSerial15serial_rx_checkEh+0x13a>
    184c:	df 91       	pop	r29
    184e:	cf 91       	pop	r28
    1850:	1f 91       	pop	r17
    1852:	0f 91       	pop	r16
    1854:	08 95       	ret

00001856 <_ZN15OrangutanSerial5checkEv>:
    1856:	80 e0       	ldi	r24, 0x00	; 0
    1858:	0e 94 0d 0b 	call	0x161a	; 0x161a <_ZN15OrangutanSerial15serial_tx_checkEh>
    185c:	81 e0       	ldi	r24, 0x01	; 1
    185e:	0e 94 0d 0b 	call	0x161a	; 0x161a <_ZN15OrangutanSerial15serial_tx_checkEh>
    1862:	82 e0       	ldi	r24, 0x02	; 2
    1864:	0e 94 0d 0b 	call	0x161a	; 0x161a <_ZN15OrangutanSerial15serial_tx_checkEh>
    1868:	80 e0       	ldi	r24, 0x00	; 0
    186a:	0e 94 3b 0b 	call	0x1676	; 0x1676 <_ZN15OrangutanSerial15serial_rx_checkEh>
    186e:	81 e0       	ldi	r24, 0x01	; 1
    1870:	0e 94 3b 0b 	call	0x1676	; 0x1676 <_ZN15OrangutanSerial15serial_rx_checkEh>
    1874:	82 e0       	ldi	r24, 0x02	; 2
    1876:	0e 94 3b 0b 	call	0x1676	; 0x1676 <_ZN15OrangutanSerial15serial_rx_checkEh>
    187a:	08 95       	ret

0000187c <_ZN15OrangutanSerial12sendBlockingEhPch>:
    187c:	1f 93       	push	r17
    187e:	18 2f       	mov	r17, r24
    1880:	0e 94 3d 0a 	call	0x147a	; 0x147a <_ZN15OrangutanSerial4sendEhPch>
    1884:	02 c0       	rjmp	.+4      	; 0x188a <_ZN15OrangutanSerial12sendBlockingEhPch+0xe>
    1886:	0e 94 2b 0c 	call	0x1856	; 0x1856 <_ZN15OrangutanSerial5checkEv>
    188a:	81 2f       	mov	r24, r17
    188c:	90 e0       	ldi	r25, 0x00	; 0
    188e:	fc 01       	movw	r30, r24
    1890:	73 e0       	ldi	r23, 0x03	; 3
    1892:	ee 0f       	add	r30, r30
    1894:	ff 1f       	adc	r31, r31
    1896:	7a 95       	dec	r23
    1898:	e1 f7       	brne	.-8      	; 0x1892 <_ZN15OrangutanSerial12sendBlockingEhPch+0x16>
    189a:	88 0f       	add	r24, r24
    189c:	99 1f       	adc	r25, r25
    189e:	e8 0f       	add	r30, r24
    18a0:	f9 1f       	adc	r31, r25
    18a2:	ec 5f       	subi	r30, 0xFC	; 252
    18a4:	fe 4f       	sbci	r31, 0xFE	; 254
    18a6:	21 81       	ldd	r18, Z+1	; 0x01
    18a8:	81 2f       	mov	r24, r17
    18aa:	90 e0       	ldi	r25, 0x00	; 0
    18ac:	fc 01       	movw	r30, r24
    18ae:	53 e0       	ldi	r21, 0x03	; 3
    18b0:	ee 0f       	add	r30, r30
    18b2:	ff 1f       	adc	r31, r31
    18b4:	5a 95       	dec	r21
    18b6:	e1 f7       	brne	.-8      	; 0x18b0 <_ZN15OrangutanSerial12sendBlockingEhPch+0x34>
    18b8:	88 0f       	add	r24, r24
    18ba:	99 1f       	adc	r25, r25
    18bc:	e8 0f       	add	r30, r24
    18be:	f9 1f       	adc	r31, r25
    18c0:	ec 5f       	subi	r30, 0xFC	; 252
    18c2:	fe 4f       	sbci	r31, 0xFE	; 254
    18c4:	83 81       	ldd	r24, Z+3	; 0x03
    18c6:	28 17       	cp	r18, r24
    18c8:	f1 f6       	brne	.-68     	; 0x1886 <_ZN15OrangutanSerial12sendBlockingEhPch+0xa>
    18ca:	1f 91       	pop	r17
    18cc:	08 95       	ret

000018ce <serial_send_blocking>:
    18ce:	0e 94 3e 0c 	call	0x187c	; 0x187c <_ZN15OrangutanSerial12sendBlockingEhPch>
    18d2:	08 95       	ret

000018d4 <_ZN15OrangutanSerial15receiveBlockingEhPchj>:
    18d4:	a0 e0       	ldi	r26, 0x00	; 0
    18d6:	b0 e0       	ldi	r27, 0x00	; 0
    18d8:	e0 e7       	ldi	r30, 0x70	; 112
    18da:	fc e0       	ldi	r31, 0x0C	; 12
    18dc:	0c 94 c7 0f 	jmp	0x1f8e	; 0x1f8e <__prologue_saves__+0xc>
    18e0:	08 2f       	mov	r16, r24
    18e2:	79 01       	movw	r14, r18
    18e4:	0e 94 5d 08 	call	0x10ba	; 0x10ba <_ZN15OrangutanSerial7receiveEhPch>
    18e8:	0e 94 50 0d 	call	0x1aa0	; 0x1aa0 <_ZN13OrangutanTime2msEv>
    18ec:	4b 01       	movw	r8, r22
    18ee:	5c 01       	movw	r10, r24
    18f0:	10 e0       	ldi	r17, 0x00	; 0
    18f2:	e8 01       	movw	r28, r16
    18f4:	cc 0f       	add	r28, r28
    18f6:	dd 1f       	adc	r29, r29
    18f8:	cc 0f       	add	r28, r28
    18fa:	dd 1f       	adc	r29, r29
    18fc:	c0 0f       	add	r28, r16
    18fe:	d1 1f       	adc	r29, r17
    1900:	cc 0f       	add	r28, r28
    1902:	dd 1f       	adc	r29, r29
    1904:	ca 5f       	subi	r28, 0xFA	; 250
    1906:	de 4f       	sbci	r29, 0xFE	; 254
    1908:	68 01       	movw	r12, r16
    190a:	f3 e0       	ldi	r31, 0x03	; 3
    190c:	cc 0c       	add	r12, r12
    190e:	dd 1c       	adc	r13, r13
    1910:	fa 95       	dec	r31
    1912:	e1 f7       	brne	.-8      	; 0x190c <_ZN15OrangutanSerial15receiveBlockingEhPchj+0x38>
    1914:	00 0f       	add	r16, r16
    1916:	11 1f       	adc	r17, r17
    1918:	c0 0e       	add	r12, r16
    191a:	d1 1e       	adc	r13, r17
    191c:	88 e0       	ldi	r24, 0x08	; 8
    191e:	91 e0       	ldi	r25, 0x01	; 1
    1920:	c8 0e       	add	r12, r24
    1922:	d9 1e       	adc	r13, r25
    1924:	00 e0       	ldi	r16, 0x00	; 0
    1926:	10 e0       	ldi	r17, 0x00	; 0
    1928:	0e 94 2b 0c 	call	0x1856	; 0x1856 <_ZN15OrangutanSerial5checkEv>
    192c:	98 81       	ld	r25, Y
    192e:	f6 01       	movw	r30, r12
    1930:	80 81       	ld	r24, Z
    1932:	98 17       	cp	r25, r24
    1934:	11 f4       	brne	.+4      	; 0x193a <_ZN15OrangutanSerial15receiveBlockingEhPchj+0x66>
    1936:	80 e0       	ldi	r24, 0x00	; 0
    1938:	0c c0       	rjmp	.+24     	; 0x1952 <_ZN15OrangutanSerial15receiveBlockingEhPchj+0x7e>
    193a:	0e 94 50 0d 	call	0x1aa0	; 0x1aa0 <_ZN13OrangutanTime2msEv>
    193e:	68 19       	sub	r22, r8
    1940:	79 09       	sbc	r23, r9
    1942:	8a 09       	sbc	r24, r10
    1944:	9b 09       	sbc	r25, r11
    1946:	6e 15       	cp	r22, r14
    1948:	7f 05       	cpc	r23, r15
    194a:	80 07       	cpc	r24, r16
    194c:	91 07       	cpc	r25, r17
    194e:	60 f3       	brcs	.-40     	; 0x1928 <_ZN15OrangutanSerial15receiveBlockingEhPchj+0x54>
    1950:	81 e0       	ldi	r24, 0x01	; 1
    1952:	cd b7       	in	r28, 0x3d	; 61
    1954:	de b7       	in	r29, 0x3e	; 62
    1956:	ec e0       	ldi	r30, 0x0C	; 12
    1958:	0c 94 e3 0f 	jmp	0x1fc6	; 0x1fc6 <__epilogue_restores__+0xc>

0000195c <serial_receive_blocking>:
    195c:	0e 94 6a 0c 	call	0x18d4	; 0x18d4 <_ZN15OrangutanSerial15receiveBlockingEhPchj>
    1960:	08 95       	ret

00001962 <serial_check>:
    1962:	0e 94 2b 0c 	call	0x1856	; 0x1856 <_ZN15OrangutanSerial5checkEv>
    1966:	08 95       	ret

00001968 <__vector_11>:
    1968:	2f 92       	push	r2
    196a:	8f 93       	push	r24
    196c:	9f 93       	push	r25
    196e:	2f b6       	in	r2, 0x3f	; 63
    1970:	80 91 46 01 	lds	r24, 0x0146
    1974:	90 91 47 01 	lds	r25, 0x0147
    1978:	01 96       	adiw	r24, 0x01	; 1
    197a:	80 93 46 01 	sts	0x0146, r24
    197e:	90 93 47 01 	sts	0x0147, r25
    1982:	90 e0       	ldi	r25, 0x00	; 0
    1984:	80 91 48 01 	lds	r24, 0x0148
    1988:	89 1f       	adc	r24, r25
    198a:	80 93 48 01 	sts	0x0148, r24
    198e:	90 91 4e 01 	lds	r25, 0x014E
    1992:	9c 5f       	subi	r25, 0xFC	; 252
    1994:	90 93 4e 01 	sts	0x014E, r25
    1998:	80 91 4d 01 	lds	r24, 0x014D
    199c:	80 51       	subi	r24, 0x10	; 16
    199e:	97 42       	sbci	r25, 0x27	; 39
    19a0:	c0 f0       	brcs	.+48     	; 0x19d2 <end>
    19a2:	90 93 4e 01 	sts	0x014E, r25
    19a6:	80 93 4d 01 	sts	0x014D, r24
    19aa:	80 91 49 01 	lds	r24, 0x0149
    19ae:	90 91 4a 01 	lds	r25, 0x014A
    19b2:	01 96       	adiw	r24, 0x01	; 1
    19b4:	80 93 49 01 	sts	0x0149, r24
    19b8:	90 93 4a 01 	sts	0x014A, r25
    19bc:	90 e0       	ldi	r25, 0x00	; 0
    19be:	80 91 4b 01 	lds	r24, 0x014B
    19c2:	89 1f       	adc	r24, r25
    19c4:	80 93 4b 01 	sts	0x014B, r24
    19c8:	80 91 4c 01 	lds	r24, 0x014C
    19cc:	89 1f       	adc	r24, r25
    19ce:	80 93 4c 01 	sts	0x014C, r24

000019d2 <end>:
    19d2:	2f be       	out	0x3f, r2	; 63
    19d4:	9f 91       	pop	r25
    19d6:	8f 91       	pop	r24
    19d8:	2f 90       	pop	r2
    19da:	18 95       	reti

000019dc <ticks_to_microseconds>:
    19dc:	6f 5f       	subi	r22, 0xFF	; 255
    19de:	7f 4f       	sbci	r23, 0xFF	; 255
    19e0:	8f 4f       	sbci	r24, 0xFF	; 255
    19e2:	9f 4f       	sbci	r25, 0xFF	; 255
    19e4:	66 0f       	add	r22, r22
    19e6:	77 1f       	adc	r23, r23
    19e8:	88 1f       	adc	r24, r24
    19ea:	99 1f       	adc	r25, r25
    19ec:	25 e0       	ldi	r18, 0x05	; 5
    19ee:	30 e0       	ldi	r19, 0x00	; 0
    19f0:	40 e0       	ldi	r20, 0x00	; 0
    19f2:	50 e0       	ldi	r21, 0x00	; 0
    19f4:	0e 94 9f 0f 	call	0x1f3e	; 0x1f3e <__udivmodsi4>
    19f8:	ca 01       	movw	r24, r20
    19fa:	b9 01       	movw	r22, r18
    19fc:	08 95       	ret

000019fe <delay_ms>:
    19fe:	28 ee       	ldi	r18, 0xE8	; 232
    1a00:	33 e0       	ldi	r19, 0x03	; 3
    1a02:	09 c0       	rjmp	.+18     	; 0x1a16 <delay_ms+0x18>
    1a04:	f9 01       	movw	r30, r18
    1a06:	6f 93       	push	r22
    1a08:	64 e0       	ldi	r22, 0x04	; 4
    1a0a:	6a 95       	dec	r22
    1a0c:	f1 f7       	brne	.-4      	; 0x1a0a <delay_ms+0xc>
    1a0e:	6f 91       	pop	r22
    1a10:	31 97       	sbiw	r30, 0x01	; 1
    1a12:	c9 f7       	brne	.-14     	; 0x1a06 <delay_ms+0x8>
    1a14:	01 97       	sbiw	r24, 0x01	; 1
    1a16:	00 97       	sbiw	r24, 0x00	; 0
    1a18:	a9 f7       	brne	.-22     	; 0x1a04 <delay_ms+0x6>
    1a1a:	08 95       	ret

00001a1c <_ZN13OrangutanTime19ticksToMicrosecondsEm>:
    1a1c:	6f 5f       	subi	r22, 0xFF	; 255
    1a1e:	7f 4f       	sbci	r23, 0xFF	; 255
    1a20:	8f 4f       	sbci	r24, 0xFF	; 255
    1a22:	9f 4f       	sbci	r25, 0xFF	; 255
    1a24:	66 0f       	add	r22, r22
    1a26:	77 1f       	adc	r23, r23
    1a28:	88 1f       	adc	r24, r24
    1a2a:	99 1f       	adc	r25, r25
    1a2c:	25 e0       	ldi	r18, 0x05	; 5
    1a2e:	30 e0       	ldi	r19, 0x00	; 0
    1a30:	40 e0       	ldi	r20, 0x00	; 0
    1a32:	50 e0       	ldi	r21, 0x00	; 0
    1a34:	0e 94 9f 0f 	call	0x1f3e	; 0x1f3e <__udivmodsi4>
    1a38:	ca 01       	movw	r24, r20
    1a3a:	b9 01       	movw	r22, r18
    1a3c:	08 95       	ret

00001a3e <_ZN13OrangutanTime17delayMillisecondsEj>:
    1a3e:	28 ee       	ldi	r18, 0xE8	; 232
    1a40:	33 e0       	ldi	r19, 0x03	; 3
    1a42:	09 c0       	rjmp	.+18     	; 0x1a56 <_ZN13OrangutanTime17delayMillisecondsEj+0x18>
    1a44:	f9 01       	movw	r30, r18
    1a46:	6f 93       	push	r22
    1a48:	64 e0       	ldi	r22, 0x04	; 4
    1a4a:	6a 95       	dec	r22
    1a4c:	f1 f7       	brne	.-4      	; 0x1a4a <_ZN13OrangutanTime17delayMillisecondsEj+0xc>
    1a4e:	6f 91       	pop	r22
    1a50:	31 97       	sbiw	r30, 0x01	; 1
    1a52:	c9 f7       	brne	.-14     	; 0x1a46 <_ZN13OrangutanTime17delayMillisecondsEj+0x8>
    1a54:	01 97       	sbiw	r24, 0x01	; 1
    1a56:	00 97       	sbiw	r24, 0x00	; 0
    1a58:	a9 f7       	brne	.-22     	; 0x1a44 <_ZN13OrangutanTime17delayMillisecondsEj+0x6>
    1a5a:	08 95       	ret

00001a5c <_ZN13OrangutanTime5init2Ev>:
    1a5c:	a0 e7       	ldi	r26, 0x70	; 112
    1a5e:	b0 e0       	ldi	r27, 0x00	; 0
    1a60:	8c 91       	ld	r24, X
    1a62:	8e 7f       	andi	r24, 0xFE	; 254
    1a64:	8c 93       	st	X, r24
    1a66:	e0 eb       	ldi	r30, 0xB0	; 176
    1a68:	f0 e0       	ldi	r31, 0x00	; 0
    1a6a:	80 81       	ld	r24, Z
    1a6c:	83 60       	ori	r24, 0x03	; 3
    1a6e:	80 83       	st	Z, r24
    1a70:	e1 eb       	ldi	r30, 0xB1	; 177
    1a72:	f0 e0       	ldi	r31, 0x00	; 0
    1a74:	80 81       	ld	r24, Z
    1a76:	80 7f       	andi	r24, 0xF0	; 240
    1a78:	80 83       	st	Z, r24
    1a7a:	80 81       	ld	r24, Z
    1a7c:	82 60       	ori	r24, 0x02	; 2
    1a7e:	80 83       	st	Z, r24
    1a80:	b8 9a       	sbi	0x17, 0	; 23
    1a82:	8c 91       	ld	r24, X
    1a84:	81 60       	ori	r24, 0x01	; 1
    1a86:	8c 93       	st	X, r24
    1a88:	78 94       	sei
    1a8a:	08 95       	ret

00001a8c <_ZN13OrangutanTime4initEv>:
    1a8c:	80 91 4f 01 	lds	r24, 0x014F
    1a90:	88 23       	and	r24, r24
    1a92:	29 f4       	brne	.+10     	; 0x1a9e <_ZN13OrangutanTime4initEv+0x12>
    1a94:	81 e0       	ldi	r24, 0x01	; 1
    1a96:	80 93 4f 01 	sts	0x014F, r24
    1a9a:	0e 94 2e 0d 	call	0x1a5c	; 0x1a5c <_ZN13OrangutanTime5init2Ev>
    1a9e:	08 95       	ret

00001aa0 <_ZN13OrangutanTime2msEv>:
    1aa0:	0e 94 46 0d 	call	0x1a8c	; 0x1a8c <_ZN13OrangutanTime4initEv>
    1aa4:	e0 e7       	ldi	r30, 0x70	; 112
    1aa6:	f0 e0       	ldi	r31, 0x00	; 0
    1aa8:	80 81       	ld	r24, Z
    1aaa:	8e 7f       	andi	r24, 0xFE	; 254
    1aac:	80 83       	st	Z, r24
    1aae:	20 91 49 01 	lds	r18, 0x0149
    1ab2:	30 91 4a 01 	lds	r19, 0x014A
    1ab6:	40 91 4b 01 	lds	r20, 0x014B
    1aba:	50 91 4c 01 	lds	r21, 0x014C
    1abe:	80 81       	ld	r24, Z
    1ac0:	81 60       	ori	r24, 0x01	; 1
    1ac2:	80 83       	st	Z, r24
    1ac4:	b9 01       	movw	r22, r18
    1ac6:	ca 01       	movw	r24, r20
    1ac8:	08 95       	ret

00001aca <get_ms>:
    1aca:	0e 94 50 0d 	call	0x1aa0	; 0x1aa0 <_ZN13OrangutanTime2msEv>
    1ace:	08 95       	ret

00001ad0 <_ZN13OrangutanTime5ticksEv>:
    1ad0:	0e 94 46 0d 	call	0x1a8c	; 0x1a8c <_ZN13OrangutanTime4initEv>
    1ad4:	80 91 70 00 	lds	r24, 0x0070
    1ad8:	8e 7f       	andi	r24, 0xFE	; 254
    1ada:	80 93 70 00 	sts	0x0070, r24
    1ade:	60 91 b2 00 	lds	r22, 0x00B2
    1ae2:	80 91 45 01 	lds	r24, 0x0145
    1ae6:	90 91 46 01 	lds	r25, 0x0146
    1aea:	a0 91 47 01 	lds	r26, 0x0147
    1aee:	b0 91 48 01 	lds	r27, 0x0148
    1af2:	b8 99       	sbic	0x17, 0	; 23
    1af4:	05 c0       	rjmp	.+10     	; 0x1b00 <_ZN13OrangutanTime5ticksEv+0x30>
    1af6:	26 2f       	mov	r18, r22
    1af8:	30 e0       	ldi	r19, 0x00	; 0
    1afa:	40 e0       	ldi	r20, 0x00	; 0
    1afc:	50 e0       	ldi	r21, 0x00	; 0
    1afe:	11 c0       	rjmp	.+34     	; 0x1b22 <_ZN13OrangutanTime5ticksEv+0x52>
    1b00:	80 91 b2 00 	lds	r24, 0x00B2
    1b04:	20 91 45 01 	lds	r18, 0x0145
    1b08:	30 91 46 01 	lds	r19, 0x0146
    1b0c:	40 91 47 01 	lds	r20, 0x0147
    1b10:	50 91 48 01 	lds	r21, 0x0148
    1b14:	20 50       	subi	r18, 0x00	; 0
    1b16:	3f 4f       	sbci	r19, 0xFF	; 255
    1b18:	4f 4f       	sbci	r20, 0xFF	; 255
    1b1a:	5f 4f       	sbci	r21, 0xFF	; 255
    1b1c:	90 e0       	ldi	r25, 0x00	; 0
    1b1e:	a0 e0       	ldi	r26, 0x00	; 0
    1b20:	b0 e0       	ldi	r27, 0x00	; 0
    1b22:	28 2b       	or	r18, r24
    1b24:	39 2b       	or	r19, r25
    1b26:	4a 2b       	or	r20, r26
    1b28:	5b 2b       	or	r21, r27
    1b2a:	80 91 70 00 	lds	r24, 0x0070
    1b2e:	81 60       	ori	r24, 0x01	; 1
    1b30:	80 93 70 00 	sts	0x0070, r24
    1b34:	b9 01       	movw	r22, r18
    1b36:	ca 01       	movw	r24, r20
    1b38:	08 95       	ret

00001b3a <get_ticks>:
    1b3a:	0e 94 68 0d 	call	0x1ad0	; 0x1ad0 <_ZN13OrangutanTime5ticksEv>
    1b3e:	08 95       	ret

00001b40 <_ZN13OrangutanTime5resetEv>:
    1b40:	0e 94 46 0d 	call	0x1a8c	; 0x1a8c <_ZN13OrangutanTime4initEv>
    1b44:	e0 e7       	ldi	r30, 0x70	; 112
    1b46:	f0 e0       	ldi	r31, 0x00	; 0
    1b48:	80 81       	ld	r24, Z
    1b4a:	8e 7f       	andi	r24, 0xFE	; 254
    1b4c:	80 83       	st	Z, r24
    1b4e:	10 92 49 01 	sts	0x0149, r1
    1b52:	10 92 4a 01 	sts	0x014A, r1
    1b56:	10 92 4b 01 	sts	0x014B, r1
    1b5a:	10 92 4c 01 	sts	0x014C, r1
    1b5e:	10 92 4e 01 	sts	0x014E, r1
    1b62:	10 92 4d 01 	sts	0x014D, r1
    1b66:	80 81       	ld	r24, Z
    1b68:	81 60       	ori	r24, 0x01	; 1
    1b6a:	80 83       	st	Z, r24
    1b6c:	08 95       	ret

00001b6e <time_reset>:
    1b6e:	0e 94 a0 0d 	call	0x1b40	; 0x1b40 <_ZN13OrangutanTime5resetEv>
    1b72:	08 95       	ret

00001b74 <_ZN12OrangutanSVP7setModeEh>:
    1b74:	98 2f       	mov	r25, r24
    1b76:	80 91 66 01 	lds	r24, 0x0166
    1b7a:	89 17       	cp	r24, r25
    1b7c:	39 f0       	breq	.+14     	; 0x1b8c <_ZN12OrangutanSVP7setModeEh+0x18>
    1b7e:	90 93 66 01 	sts	0x0166, r25
    1b82:	89 2f       	mov	r24, r25
    1b84:	80 6c       	ori	r24, 0xC0	; 192
    1b86:	65 e0       	ldi	r22, 0x05	; 5
    1b88:	0e 94 22 0f 	call	0x1e44	; 0x1e44 <_ZN18OrangutanSPIMaster16transmitAndDelayEhh>
    1b8c:	08 95       	ret

00001b8e <svp_set_mode>:
    1b8e:	0e 94 ba 0d 	call	0x1b74	; 0x1b74 <_ZN12OrangutanSVP7setModeEh>
    1b92:	08 95       	ret

00001b94 <_ZN12OrangutanSVP17serialSendIfReadyEc>:
    1b94:	1f 93       	push	r17
    1b96:	18 2f       	mov	r17, r24
    1b98:	88 1f       	adc	r24, r24
    1b9a:	88 27       	eor	r24, r24
    1b9c:	88 1f       	adc	r24, r24
    1b9e:	8c 57       	subi	r24, 0x7C	; 124
    1ba0:	65 e0       	ldi	r22, 0x05	; 5
    1ba2:	0e 94 22 0f 	call	0x1e44	; 0x1e44 <_ZN18OrangutanSPIMaster16transmitAndDelayEhh>
    1ba6:	81 2f       	mov	r24, r17
    1ba8:	8f 77       	andi	r24, 0x7F	; 127
    1baa:	65 e0       	ldi	r22, 0x05	; 5
    1bac:	0e 94 22 0f 	call	0x1e44	; 0x1e44 <_ZN18OrangutanSPIMaster16transmitAndDelayEhh>
    1bb0:	1f 91       	pop	r17
    1bb2:	08 95       	ret

00001bb4 <_ZN12OrangutanSVP11getNextByteEv>:
    1bb4:	8f ef       	ldi	r24, 0xFF	; 255
    1bb6:	64 e0       	ldi	r22, 0x04	; 4
    1bb8:	0e 94 22 0f 	call	0x1e44	; 0x1e44 <_ZN18OrangutanSPIMaster16transmitAndDelayEhh>
    1bbc:	08 95       	ret

00001bbe <_ZL23updateVariablesIfNeededv>:
    1bbe:	cf 93       	push	r28
    1bc0:	df 93       	push	r29
    1bc2:	0e 94 50 0d 	call	0x1aa0	; 0x1aa0 <_ZN13OrangutanTime2msEv>
    1bc6:	20 91 26 01 	lds	r18, 0x0126
    1bca:	30 91 27 01 	lds	r19, 0x0127
    1bce:	40 91 28 01 	lds	r20, 0x0128
    1bd2:	50 91 29 01 	lds	r21, 0x0129
    1bd6:	62 17       	cp	r22, r18
    1bd8:	73 07       	cpc	r23, r19
    1bda:	84 07       	cpc	r24, r20
    1bdc:	95 07       	cpc	r25, r21
    1bde:	b9 f0       	breq	.+46     	; 0x1c0e <_ZL23updateVariablesIfNeededv+0x50>
    1be0:	81 e8       	ldi	r24, 0x81	; 129
    1be2:	67 e0       	ldi	r22, 0x07	; 7
    1be4:	0e 94 22 0f 	call	0x1e44	; 0x1e44 <_ZN18OrangutanSPIMaster16transmitAndDelayEhh>
    1be8:	c9 e5       	ldi	r28, 0x59	; 89
    1bea:	d1 e0       	ldi	r29, 0x01	; 1
    1bec:	0e 94 da 0d 	call	0x1bb4	; 0x1bb4 <_ZN12OrangutanSVP11getNextByteEv>
    1bf0:	89 93       	st	Y+, r24
    1bf2:	81 e0       	ldi	r24, 0x01	; 1
    1bf4:	c6 36       	cpi	r28, 0x66	; 102
    1bf6:	d8 07       	cpc	r29, r24
    1bf8:	c9 f7       	brne	.-14     	; 0x1bec <_ZL23updateVariablesIfNeededv+0x2e>
    1bfa:	0e 94 50 0d 	call	0x1aa0	; 0x1aa0 <_ZN13OrangutanTime2msEv>
    1bfe:	60 93 26 01 	sts	0x0126, r22
    1c02:	70 93 27 01 	sts	0x0127, r23
    1c06:	80 93 28 01 	sts	0x0128, r24
    1c0a:	90 93 29 01 	sts	0x0129, r25
    1c0e:	df 91       	pop	r29
    1c10:	cf 91       	pop	r28
    1c12:	08 95       	ret

00001c14 <_ZN12OrangutanSVP9getStatusEv>:
    1c14:	0e 94 df 0d 	call	0x1bbe	; 0x1bbe <_ZL23updateVariablesIfNeededv>
    1c18:	80 91 59 01 	lds	r24, 0x0159
    1c1c:	08 95       	ret

00001c1e <svp_get_status>:
    1c1e:	0e 94 0a 0e 	call	0x1c14	; 0x1c14 <_ZN12OrangutanSVP9getStatusEv>
    1c22:	08 95       	ret

00001c24 <_ZN12OrangutanSVP21getChannelDMillivoltsEv>:
    1c24:	0e 94 df 0d 	call	0x1bbe	; 0x1bbe <_ZL23updateVariablesIfNeededv>
    1c28:	80 91 60 01 	lds	r24, 0x0160
    1c2c:	90 91 61 01 	lds	r25, 0x0161
    1c30:	08 95       	ret

00001c32 <_ZN12OrangutanSVP21getChannelCMillivoltsEv>:
    1c32:	0e 94 df 0d 	call	0x1bbe	; 0x1bbe <_ZL23updateVariablesIfNeededv>
    1c36:	80 91 5e 01 	lds	r24, 0x015E
    1c3a:	90 91 5f 01 	lds	r25, 0x015F
    1c3e:	08 95       	ret

00001c40 <_ZN12OrangutanSVP21getChannelBMillivoltsEv>:
    1c40:	0e 94 df 0d 	call	0x1bbe	; 0x1bbe <_ZL23updateVariablesIfNeededv>
    1c44:	80 91 5c 01 	lds	r24, 0x015C
    1c48:	90 91 5d 01 	lds	r25, 0x015D
    1c4c:	08 95       	ret

00001c4e <_ZN12OrangutanSVP21getChannelAMillivoltsEv>:
    1c4e:	0e 94 df 0d 	call	0x1bbe	; 0x1bbe <_ZL23updateVariablesIfNeededv>
    1c52:	80 91 5a 01 	lds	r24, 0x015A
    1c56:	90 91 5b 01 	lds	r25, 0x015B
    1c5a:	08 95       	ret

00001c5c <_ZN12OrangutanSVP20getBatteryMillivoltsEv>:
    1c5c:	0e 94 df 0d 	call	0x1bbe	; 0x1bbe <_ZL23updateVariablesIfNeededv>
    1c60:	80 91 64 01 	lds	r24, 0x0164
    1c64:	90 91 65 01 	lds	r25, 0x0165
    1c68:	08 95       	ret

00001c6a <_ZN12OrangutanSVP20getTrimpotMillivoltsEv>:
    1c6a:	0e 94 df 0d 	call	0x1bbe	; 0x1bbe <_ZL23updateVariablesIfNeededv>
    1c6e:	80 91 62 01 	lds	r24, 0x0162
    1c72:	90 91 63 01 	lds	r25, 0x0163
    1c76:	08 95       	ret

00001c78 <_ZN12OrangutanSVP15serialReadStartEv>:
    1c78:	83 e8       	ldi	r24, 0x83	; 131
    1c7a:	67 e0       	ldi	r22, 0x07	; 7
    1c7c:	0e 94 22 0f 	call	0x1e44	; 0x1e44 <_ZN18OrangutanSPIMaster16transmitAndDelayEhh>
    1c80:	0e 94 da 0d 	call	0x1bb4	; 0x1bb4 <_ZN12OrangutanSVP11getNextByteEv>
    1c84:	08 95       	ret

00001c86 <_Z14updateEncodersv>:
    1c86:	a5 e0       	ldi	r26, 0x05	; 5
    1c88:	b0 e0       	ldi	r27, 0x00	; 0
    1c8a:	e9 e4       	ldi	r30, 0x49	; 73
    1c8c:	fe e0       	ldi	r31, 0x0E	; 14
    1c8e:	0c 94 d0 0f 	jmp	0x1fa0	; 0x1fa0 <__prologue_saves__+0x1e>
    1c92:	82 e8       	ldi	r24, 0x82	; 130
    1c94:	66 e0       	ldi	r22, 0x06	; 6
    1c96:	0e 94 22 0f 	call	0x1e44	; 0x1e44 <_ZN18OrangutanSPIMaster16transmitAndDelayEhh>
    1c9a:	0e 94 da 0d 	call	0x1bb4	; 0x1bb4 <_ZN12OrangutanSVP11getNextByteEv>
    1c9e:	80 93 54 01 	sts	0x0154, r24
    1ca2:	0e 94 da 0d 	call	0x1bb4	; 0x1bb4 <_ZN12OrangutanSVP11getNextByteEv>
    1ca6:	80 93 55 01 	sts	0x0155, r24
    1caa:	0e 94 da 0d 	call	0x1bb4	; 0x1bb4 <_ZN12OrangutanSVP11getNextByteEv>
    1cae:	80 93 56 01 	sts	0x0156, r24
    1cb2:	0e 94 da 0d 	call	0x1bb4	; 0x1bb4 <_ZN12OrangutanSVP11getNextByteEv>
    1cb6:	80 93 57 01 	sts	0x0157, r24
    1cba:	10 91 58 01 	lds	r17, 0x0158
    1cbe:	0e 94 da 0d 	call	0x1bb4	; 0x1bb4 <_ZN12OrangutanSVP11getNextByteEv>
    1cc2:	18 2b       	or	r17, r24
    1cc4:	10 93 58 01 	sts	0x0158, r17
    1cc8:	de 01       	movw	r26, r28
    1cca:	11 96       	adiw	r26, 0x01	; 1
    1ccc:	e4 e5       	ldi	r30, 0x54	; 84
    1cce:	f1 e0       	ldi	r31, 0x01	; 1
    1cd0:	85 e0       	ldi	r24, 0x05	; 5
    1cd2:	01 90       	ld	r0, Z+
    1cd4:	0d 92       	st	X+, r0
    1cd6:	81 50       	subi	r24, 0x01	; 1
    1cd8:	e1 f7       	brne	.-8      	; 0x1cd2 <_Z14updateEncodersv+0x4c>
    1cda:	29 81       	ldd	r18, Y+1	; 0x01
    1cdc:	3a 81       	ldd	r19, Y+2	; 0x02
    1cde:	4b 81       	ldd	r20, Y+3	; 0x03
    1ce0:	5c 81       	ldd	r21, Y+4	; 0x04
    1ce2:	6d 81       	ldd	r22, Y+5	; 0x05
    1ce4:	70 e0       	ldi	r23, 0x00	; 0
    1ce6:	90 e0       	ldi	r25, 0x00	; 0
    1ce8:	25 96       	adiw	r28, 0x05	; 5
    1cea:	e3 e0       	ldi	r30, 0x03	; 3
    1cec:	0c 94 ec 0f 	jmp	0x1fd8	; 0x1fd8 <__epilogue_restores__+0x1e>

00001cf0 <_ZL22updateEncodersIfNeededv>:
    1cf0:	0e 94 50 0d 	call	0x1aa0	; 0x1aa0 <_ZN13OrangutanTime2msEv>
    1cf4:	20 91 22 01 	lds	r18, 0x0122
    1cf8:	30 91 23 01 	lds	r19, 0x0123
    1cfc:	40 91 24 01 	lds	r20, 0x0124
    1d00:	50 91 25 01 	lds	r21, 0x0125
    1d04:	62 17       	cp	r22, r18
    1d06:	73 07       	cpc	r23, r19
    1d08:	84 07       	cpc	r24, r20
    1d0a:	95 07       	cpc	r25, r21
    1d0c:	61 f0       	breq	.+24     	; 0x1d26 <_ZL22updateEncodersIfNeededv+0x36>
    1d0e:	0e 94 43 0e 	call	0x1c86	; 0x1c86 <_Z14updateEncodersv>
    1d12:	0e 94 50 0d 	call	0x1aa0	; 0x1aa0 <_ZN13OrangutanTime2msEv>
    1d16:	60 93 22 01 	sts	0x0122, r22
    1d1a:	70 93 23 01 	sts	0x0123, r23
    1d1e:	80 93 24 01 	sts	0x0124, r24
    1d22:	90 93 25 01 	sts	0x0125, r25
    1d26:	08 95       	ret

00001d28 <_ZN12OrangutanSVP12checkErrorCDEv>:
    1d28:	0e 94 78 0e 	call	0x1cf0	; 0x1cf0 <_ZL22updateEncodersIfNeededv>
    1d2c:	80 91 58 01 	lds	r24, 0x0158
    1d30:	81 fd       	sbrc	r24, 1
    1d32:	02 c0       	rjmp	.+4      	; 0x1d38 <_ZN12OrangutanSVP12checkErrorCDEv+0x10>
    1d34:	80 e0       	ldi	r24, 0x00	; 0
    1d36:	08 95       	ret
    1d38:	8d 7f       	andi	r24, 0xFD	; 253
    1d3a:	80 93 58 01 	sts	0x0158, r24
    1d3e:	81 e0       	ldi	r24, 0x01	; 1
    1d40:	08 95       	ret

00001d42 <svp_check_error_cd>:
    1d42:	0e 94 94 0e 	call	0x1d28	; 0x1d28 <_ZN12OrangutanSVP12checkErrorCDEv>
    1d46:	08 95       	ret

00001d48 <_ZN12OrangutanSVP12checkErrorABEv>:
    1d48:	0e 94 78 0e 	call	0x1cf0	; 0x1cf0 <_ZL22updateEncodersIfNeededv>
    1d4c:	80 91 58 01 	lds	r24, 0x0158
    1d50:	80 fd       	sbrc	r24, 0
    1d52:	02 c0       	rjmp	.+4      	; 0x1d58 <_ZN12OrangutanSVP12checkErrorABEv+0x10>
    1d54:	80 e0       	ldi	r24, 0x00	; 0
    1d56:	08 95       	ret
    1d58:	8e 7f       	andi	r24, 0xFE	; 254
    1d5a:	80 93 58 01 	sts	0x0158, r24
    1d5e:	81 e0       	ldi	r24, 0x01	; 1
    1d60:	08 95       	ret

00001d62 <svp_check_error_ab>:
    1d62:	0e 94 a4 0e 	call	0x1d48	; 0x1d48 <_ZN12OrangutanSVP12checkErrorABEv>
    1d66:	08 95       	ret

00001d68 <_ZN12OrangutanSVP11getCountsCDEv>:
    1d68:	0e 94 78 0e 	call	0x1cf0	; 0x1cf0 <_ZL22updateEncodersIfNeededv>
    1d6c:	20 91 56 01 	lds	r18, 0x0156
    1d70:	30 91 57 01 	lds	r19, 0x0157
    1d74:	80 91 52 01 	lds	r24, 0x0152
    1d78:	90 91 53 01 	lds	r25, 0x0153
    1d7c:	28 1b       	sub	r18, r24
    1d7e:	39 0b       	sbc	r19, r25
    1d80:	c9 01       	movw	r24, r18
    1d82:	08 95       	ret

00001d84 <_ZN12OrangutanSVP19getCountsAndResetCDEv>:
    1d84:	0e 94 b4 0e 	call	0x1d68	; 0x1d68 <_ZN12OrangutanSVP11getCountsCDEv>
    1d88:	20 91 56 01 	lds	r18, 0x0156
    1d8c:	30 91 57 01 	lds	r19, 0x0157
    1d90:	30 93 53 01 	sts	0x0153, r19
    1d94:	20 93 52 01 	sts	0x0152, r18
    1d98:	08 95       	ret

00001d9a <svp_get_counts_and_reset_cd>:
    1d9a:	0e 94 c2 0e 	call	0x1d84	; 0x1d84 <_ZN12OrangutanSVP19getCountsAndResetCDEv>
    1d9e:	08 95       	ret

00001da0 <svp_get_counts_cd>:
    1da0:	0e 94 b4 0e 	call	0x1d68	; 0x1d68 <_ZN12OrangutanSVP11getCountsCDEv>
    1da4:	08 95       	ret

00001da6 <_ZN12OrangutanSVP11getCountsABEv>:
    1da6:	0e 94 78 0e 	call	0x1cf0	; 0x1cf0 <_ZL22updateEncodersIfNeededv>
    1daa:	20 91 54 01 	lds	r18, 0x0154
    1dae:	30 91 55 01 	lds	r19, 0x0155
    1db2:	80 91 50 01 	lds	r24, 0x0150
    1db6:	90 91 51 01 	lds	r25, 0x0151
    1dba:	28 1b       	sub	r18, r24
    1dbc:	39 0b       	sbc	r19, r25
    1dbe:	c9 01       	movw	r24, r18
    1dc0:	08 95       	ret

00001dc2 <_ZN12OrangutanSVP19getCountsAndResetABEv>:
    1dc2:	0e 94 d3 0e 	call	0x1da6	; 0x1da6 <_ZN12OrangutanSVP11getCountsABEv>
    1dc6:	20 91 54 01 	lds	r18, 0x0154
    1dca:	30 91 55 01 	lds	r19, 0x0155
    1dce:	30 93 51 01 	sts	0x0151, r19
    1dd2:	20 93 50 01 	sts	0x0150, r18
    1dd6:	08 95       	ret

00001dd8 <svp_get_counts_and_reset_ab>:
    1dd8:	0e 94 e1 0e 	call	0x1dc2	; 0x1dc2 <_ZN12OrangutanSVP19getCountsAndResetABEv>
    1ddc:	08 95       	ret

00001dde <svp_get_counts_ab>:
    1dde:	0e 94 d3 0e 	call	0x1da6	; 0x1da6 <_ZN12OrangutanSVP11getCountsABEv>
    1de2:	08 95       	ret

00001de4 <_ZN12OrangutanSVP18getFirmwareVersionEv>:
    1de4:	80 e8       	ldi	r24, 0x80	; 128
    1de6:	65 e0       	ldi	r22, 0x05	; 5
    1de8:	0e 94 22 0f 	call	0x1e44	; 0x1e44 <_ZN18OrangutanSPIMaster16transmitAndDelayEhh>
    1dec:	0e 94 da 0d 	call	0x1bb4	; 0x1bb4 <_ZN12OrangutanSVP11getNextByteEv>
    1df0:	08 95       	ret

00001df2 <svp_get_firmware_version>:
    1df2:	0e 94 f2 0e 	call	0x1de4	; 0x1de4 <_ZN12OrangutanSVP18getFirmwareVersionEv>
    1df6:	08 95       	ret

00001df8 <_ZN18OrangutanSPIMaster4initEhh>:
    1df8:	98 2f       	mov	r25, r24
    1dfa:	24 99       	sbic	0x04, 4	; 4
    1dfc:	0c c0       	rjmp	.+24     	; 0x1e16 <_ZN18OrangutanSPIMaster4initEhh+0x1e>
    1dfe:	2c 99       	sbic	0x05, 4	; 5
    1e00:	0a c0       	rjmp	.+20     	; 0x1e16 <_ZN18OrangutanSPIMaster4initEhh+0x1e>
    1e02:	2c 9a       	sbi	0x05, 4	; 5
    1e04:	ee e1       	ldi	r30, 0x1E	; 30
    1e06:	f0 e0       	ldi	r31, 0x00	; 0
    1e08:	6f 93       	push	r22
    1e0a:	64 e0       	ldi	r22, 0x04	; 4
    1e0c:	6a 95       	dec	r22
    1e0e:	f1 f7       	brne	.-4      	; 0x1e0c <_ZN18OrangutanSPIMaster4initEhh+0x14>
    1e10:	6f 91       	pop	r22
    1e12:	31 97       	sbiw	r30, 0x01	; 1
    1e14:	c9 f7       	brne	.-14     	; 0x1e08 <_ZN18OrangutanSPIMaster4initEhh+0x10>
    1e16:	84 b1       	in	r24, 0x04	; 4
    1e18:	80 6a       	ori	r24, 0xA0	; 160
    1e1a:	84 b9       	out	0x04, r24	; 4
    1e1c:	26 98       	cbi	0x04, 6	; 4
    1e1e:	89 2f       	mov	r24, r25
    1e20:	83 70       	andi	r24, 0x03	; 3
    1e22:	80 65       	ori	r24, 0x50	; 80
    1e24:	6c 7a       	andi	r22, 0xAC	; 172
    1e26:	86 2b       	or	r24, r22
    1e28:	8c bd       	out	0x2c, r24	; 44
    1e2a:	89 2f       	mov	r24, r25
    1e2c:	90 e0       	ldi	r25, 0x00	; 0
    1e2e:	96 95       	lsr	r25
    1e30:	87 95       	ror	r24
    1e32:	96 95       	lsr	r25
    1e34:	87 95       	ror	r24
    1e36:	81 70       	andi	r24, 0x01	; 1
    1e38:	8d bd       	out	0x2d, r24	; 45
    1e3a:	81 e0       	ldi	r24, 0x01	; 1
    1e3c:	90 e0       	ldi	r25, 0x00	; 0
    1e3e:	0e 94 1f 0d 	call	0x1a3e	; 0x1a3e <_ZN13OrangutanTime17delayMillisecondsEj>
    1e42:	08 95       	ret

00001e44 <_ZN18OrangutanSPIMaster16transmitAndDelayEhh>:
    1e44:	0f 93       	push	r16
    1e46:	1f 93       	push	r17
    1e48:	08 2f       	mov	r16, r24
    1e4a:	16 2f       	mov	r17, r22
    1e4c:	0c b4       	in	r0, 0x2c	; 44
    1e4e:	06 fc       	sbrc	r0, 6
    1e50:	04 c0       	rjmp	.+8      	; 0x1e5a <_ZN18OrangutanSPIMaster16transmitAndDelayEhh+0x16>
    1e52:	80 e0       	ldi	r24, 0x00	; 0
    1e54:	64 e0       	ldi	r22, 0x04	; 4
    1e56:	0e 94 fc 0e 	call	0x1df8	; 0x1df8 <_ZN18OrangutanSPIMaster4initEhh>
    1e5a:	0c b4       	in	r0, 0x2c	; 44
    1e5c:	04 fc       	sbrc	r0, 4
    1e5e:	03 c0       	rjmp	.+6      	; 0x1e66 <_ZN18OrangutanSPIMaster16transmitAndDelayEhh+0x22>
    1e60:	8c b5       	in	r24, 0x2c	; 44
    1e62:	80 61       	ori	r24, 0x10	; 16
    1e64:	8c bd       	out	0x2c, r24	; 44
    1e66:	0e bd       	out	0x2e, r16	; 46
    1e68:	05 c0       	rjmp	.+10     	; 0x1e74 <_ZN18OrangutanSPIMaster16transmitAndDelayEhh+0x30>
    1e6a:	0c b4       	in	r0, 0x2c	; 44
    1e6c:	04 fc       	sbrc	r0, 4
    1e6e:	02 c0       	rjmp	.+4      	; 0x1e74 <_ZN18OrangutanSPIMaster16transmitAndDelayEhh+0x30>
    1e70:	80 e0       	ldi	r24, 0x00	; 0
    1e72:	0f c0       	rjmp	.+30     	; 0x1e92 <_ZN18OrangutanSPIMaster16transmitAndDelayEhh+0x4e>
    1e74:	0d b4       	in	r0, 0x2d	; 45
    1e76:	07 fe       	sbrs	r0, 7
    1e78:	f8 cf       	rjmp	.-16     	; 0x1e6a <_ZN18OrangutanSPIMaster16transmitAndDelayEhh+0x26>
    1e7a:	11 23       	and	r17, r17
    1e7c:	49 f0       	breq	.+18     	; 0x1e90 <_ZN18OrangutanSPIMaster16transmitAndDelayEhh+0x4c>
    1e7e:	81 2f       	mov	r24, r17
    1e80:	90 e0       	ldi	r25, 0x00	; 0
    1e82:	6f 93       	push	r22
    1e84:	64 e0       	ldi	r22, 0x04	; 4
    1e86:	6a 95       	dec	r22
    1e88:	f1 f7       	brne	.-4      	; 0x1e86 <_ZN18OrangutanSPIMaster16transmitAndDelayEhh+0x42>
    1e8a:	6f 91       	pop	r22
    1e8c:	01 97       	sbiw	r24, 0x01	; 1
    1e8e:	c9 f7       	brne	.-14     	; 0x1e82 <_ZN18OrangutanSPIMaster16transmitAndDelayEhh+0x3e>
    1e90:	8e b5       	in	r24, 0x2e	; 46
    1e92:	1f 91       	pop	r17
    1e94:	0f 91       	pop	r16
    1e96:	08 95       	ret

00001e98 <_ZN18OrangutanSPIMaster8transmitEh>:
    1e98:	60 e0       	ldi	r22, 0x00	; 0
    1e9a:	0e 94 22 0f 	call	0x1e44	; 0x1e44 <_ZN18OrangutanSPIMaster16transmitAndDelayEhh>
    1e9e:	08 95       	ret

00001ea0 <spi_master_transmit>:
    1ea0:	0e 94 4c 0f 	call	0x1e98	; 0x1e98 <_ZN18OrangutanSPIMaster8transmitEh>
    1ea4:	08 95       	ret

00001ea6 <spi_master_transmit_and_delay>:
    1ea6:	0e 94 22 0f 	call	0x1e44	; 0x1e44 <_ZN18OrangutanSPIMaster16transmitAndDelayEhh>
    1eaa:	08 95       	ret

00001eac <spi_master_init>:
    1eac:	0e 94 fc 0e 	call	0x1df8	; 0x1df8 <_ZN18OrangutanSPIMaster4initEhh>
    1eb0:	08 95       	ret

00001eb2 <__mulsi3>:
    1eb2:	62 9f       	mul	r22, r18
    1eb4:	d0 01       	movw	r26, r0
    1eb6:	73 9f       	mul	r23, r19
    1eb8:	f0 01       	movw	r30, r0
    1eba:	82 9f       	mul	r24, r18
    1ebc:	e0 0d       	add	r30, r0
    1ebe:	f1 1d       	adc	r31, r1
    1ec0:	64 9f       	mul	r22, r20
    1ec2:	e0 0d       	add	r30, r0
    1ec4:	f1 1d       	adc	r31, r1
    1ec6:	92 9f       	mul	r25, r18
    1ec8:	f0 0d       	add	r31, r0
    1eca:	83 9f       	mul	r24, r19
    1ecc:	f0 0d       	add	r31, r0
    1ece:	74 9f       	mul	r23, r20
    1ed0:	f0 0d       	add	r31, r0
    1ed2:	65 9f       	mul	r22, r21
    1ed4:	f0 0d       	add	r31, r0
    1ed6:	99 27       	eor	r25, r25
    1ed8:	72 9f       	mul	r23, r18
    1eda:	b0 0d       	add	r27, r0
    1edc:	e1 1d       	adc	r30, r1
    1ede:	f9 1f       	adc	r31, r25
    1ee0:	63 9f       	mul	r22, r19
    1ee2:	b0 0d       	add	r27, r0
    1ee4:	e1 1d       	adc	r30, r1
    1ee6:	f9 1f       	adc	r31, r25
    1ee8:	bd 01       	movw	r22, r26
    1eea:	cf 01       	movw	r24, r30
    1eec:	11 24       	eor	r1, r1
    1eee:	08 95       	ret

00001ef0 <__udivmodhi4>:
    1ef0:	aa 1b       	sub	r26, r26
    1ef2:	bb 1b       	sub	r27, r27
    1ef4:	51 e1       	ldi	r21, 0x11	; 17
    1ef6:	07 c0       	rjmp	.+14     	; 0x1f06 <__udivmodhi4_ep>

00001ef8 <__udivmodhi4_loop>:
    1ef8:	aa 1f       	adc	r26, r26
    1efa:	bb 1f       	adc	r27, r27
    1efc:	a6 17       	cp	r26, r22
    1efe:	b7 07       	cpc	r27, r23
    1f00:	10 f0       	brcs	.+4      	; 0x1f06 <__udivmodhi4_ep>
    1f02:	a6 1b       	sub	r26, r22
    1f04:	b7 0b       	sbc	r27, r23

00001f06 <__udivmodhi4_ep>:
    1f06:	88 1f       	adc	r24, r24
    1f08:	99 1f       	adc	r25, r25
    1f0a:	5a 95       	dec	r21
    1f0c:	a9 f7       	brne	.-22     	; 0x1ef8 <__udivmodhi4_loop>
    1f0e:	80 95       	com	r24
    1f10:	90 95       	com	r25
    1f12:	bc 01       	movw	r22, r24
    1f14:	cd 01       	movw	r24, r26
    1f16:	08 95       	ret

00001f18 <__divmodhi4>:
    1f18:	97 fb       	bst	r25, 7
    1f1a:	09 2e       	mov	r0, r25
    1f1c:	07 26       	eor	r0, r23
    1f1e:	0a d0       	rcall	.+20     	; 0x1f34 <__divmodhi4_neg1>
    1f20:	77 fd       	sbrc	r23, 7
    1f22:	04 d0       	rcall	.+8      	; 0x1f2c <__divmodhi4_neg2>
    1f24:	e5 df       	rcall	.-54     	; 0x1ef0 <__udivmodhi4>
    1f26:	06 d0       	rcall	.+12     	; 0x1f34 <__divmodhi4_neg1>
    1f28:	00 20       	and	r0, r0
    1f2a:	1a f4       	brpl	.+6      	; 0x1f32 <__divmodhi4_exit>

00001f2c <__divmodhi4_neg2>:
    1f2c:	70 95       	com	r23
    1f2e:	61 95       	neg	r22
    1f30:	7f 4f       	sbci	r23, 0xFF	; 255

00001f32 <__divmodhi4_exit>:
    1f32:	08 95       	ret

00001f34 <__divmodhi4_neg1>:
    1f34:	f6 f7       	brtc	.-4      	; 0x1f32 <__divmodhi4_exit>
    1f36:	90 95       	com	r25
    1f38:	81 95       	neg	r24
    1f3a:	9f 4f       	sbci	r25, 0xFF	; 255
    1f3c:	08 95       	ret

00001f3e <__udivmodsi4>:
    1f3e:	a1 e2       	ldi	r26, 0x21	; 33
    1f40:	1a 2e       	mov	r1, r26
    1f42:	aa 1b       	sub	r26, r26
    1f44:	bb 1b       	sub	r27, r27
    1f46:	fd 01       	movw	r30, r26
    1f48:	0d c0       	rjmp	.+26     	; 0x1f64 <__udivmodsi4_ep>

00001f4a <__udivmodsi4_loop>:
    1f4a:	aa 1f       	adc	r26, r26
    1f4c:	bb 1f       	adc	r27, r27
    1f4e:	ee 1f       	adc	r30, r30
    1f50:	ff 1f       	adc	r31, r31
    1f52:	a2 17       	cp	r26, r18
    1f54:	b3 07       	cpc	r27, r19
    1f56:	e4 07       	cpc	r30, r20
    1f58:	f5 07       	cpc	r31, r21
    1f5a:	20 f0       	brcs	.+8      	; 0x1f64 <__udivmodsi4_ep>
    1f5c:	a2 1b       	sub	r26, r18
    1f5e:	b3 0b       	sbc	r27, r19
    1f60:	e4 0b       	sbc	r30, r20
    1f62:	f5 0b       	sbc	r31, r21

00001f64 <__udivmodsi4_ep>:
    1f64:	66 1f       	adc	r22, r22
    1f66:	77 1f       	adc	r23, r23
    1f68:	88 1f       	adc	r24, r24
    1f6a:	99 1f       	adc	r25, r25
    1f6c:	1a 94       	dec	r1
    1f6e:	69 f7       	brne	.-38     	; 0x1f4a <__udivmodsi4_loop>
    1f70:	60 95       	com	r22
    1f72:	70 95       	com	r23
    1f74:	80 95       	com	r24
    1f76:	90 95       	com	r25
    1f78:	9b 01       	movw	r18, r22
    1f7a:	ac 01       	movw	r20, r24
    1f7c:	bd 01       	movw	r22, r26
    1f7e:	cf 01       	movw	r24, r30
    1f80:	08 95       	ret

00001f82 <__prologue_saves__>:
    1f82:	2f 92       	push	r2
    1f84:	3f 92       	push	r3
    1f86:	4f 92       	push	r4
    1f88:	5f 92       	push	r5
    1f8a:	6f 92       	push	r6
    1f8c:	7f 92       	push	r7
    1f8e:	8f 92       	push	r8
    1f90:	9f 92       	push	r9
    1f92:	af 92       	push	r10
    1f94:	bf 92       	push	r11
    1f96:	cf 92       	push	r12
    1f98:	df 92       	push	r13
    1f9a:	ef 92       	push	r14
    1f9c:	ff 92       	push	r15
    1f9e:	0f 93       	push	r16
    1fa0:	1f 93       	push	r17
    1fa2:	cf 93       	push	r28
    1fa4:	df 93       	push	r29
    1fa6:	cd b7       	in	r28, 0x3d	; 61
    1fa8:	de b7       	in	r29, 0x3e	; 62
    1faa:	ca 1b       	sub	r28, r26
    1fac:	db 0b       	sbc	r29, r27
    1fae:	0f b6       	in	r0, 0x3f	; 63
    1fb0:	f8 94       	cli
    1fb2:	de bf       	out	0x3e, r29	; 62
    1fb4:	0f be       	out	0x3f, r0	; 63
    1fb6:	cd bf       	out	0x3d, r28	; 61
    1fb8:	09 94       	ijmp

00001fba <__epilogue_restores__>:
    1fba:	2a 88       	ldd	r2, Y+18	; 0x12
    1fbc:	39 88       	ldd	r3, Y+17	; 0x11
    1fbe:	48 88       	ldd	r4, Y+16	; 0x10
    1fc0:	5f 84       	ldd	r5, Y+15	; 0x0f
    1fc2:	6e 84       	ldd	r6, Y+14	; 0x0e
    1fc4:	7d 84       	ldd	r7, Y+13	; 0x0d
    1fc6:	8c 84       	ldd	r8, Y+12	; 0x0c
    1fc8:	9b 84       	ldd	r9, Y+11	; 0x0b
    1fca:	aa 84       	ldd	r10, Y+10	; 0x0a
    1fcc:	b9 84       	ldd	r11, Y+9	; 0x09
    1fce:	c8 84       	ldd	r12, Y+8	; 0x08
    1fd0:	df 80       	ldd	r13, Y+7	; 0x07
    1fd2:	ee 80       	ldd	r14, Y+6	; 0x06
    1fd4:	fd 80       	ldd	r15, Y+5	; 0x05
    1fd6:	0c 81       	ldd	r16, Y+4	; 0x04
    1fd8:	1b 81       	ldd	r17, Y+3	; 0x03
    1fda:	aa 81       	ldd	r26, Y+2	; 0x02
    1fdc:	b9 81       	ldd	r27, Y+1	; 0x01
    1fde:	ce 0f       	add	r28, r30
    1fe0:	d1 1d       	adc	r29, r1
    1fe2:	0f b6       	in	r0, 0x3f	; 63
    1fe4:	f8 94       	cli
    1fe6:	de bf       	out	0x3e, r29	; 62
    1fe8:	0f be       	out	0x3f, r0	; 63
    1fea:	cd bf       	out	0x3d, r28	; 61
    1fec:	ed 01       	movw	r28, r26
    1fee:	08 95       	ret

00001ff0 <malloc>:
    1ff0:	cf 93       	push	r28
    1ff2:	df 93       	push	r29
    1ff4:	bc 01       	movw	r22, r24
    1ff6:	82 30       	cpi	r24, 0x02	; 2
    1ff8:	91 05       	cpc	r25, r1
    1ffa:	10 f4       	brcc	.+4      	; 0x2000 <malloc+0x10>
    1ffc:	62 e0       	ldi	r22, 0x02	; 2
    1ffe:	70 e0       	ldi	r23, 0x00	; 0
    2000:	a0 91 69 01 	lds	r26, 0x0169
    2004:	b0 91 6a 01 	lds	r27, 0x016A
    2008:	ed 01       	movw	r28, r26
    200a:	e0 e0       	ldi	r30, 0x00	; 0
    200c:	f0 e0       	ldi	r31, 0x00	; 0
    200e:	40 e0       	ldi	r20, 0x00	; 0
    2010:	50 e0       	ldi	r21, 0x00	; 0
    2012:	21 c0       	rjmp	.+66     	; 0x2056 <malloc+0x66>
    2014:	88 81       	ld	r24, Y
    2016:	99 81       	ldd	r25, Y+1	; 0x01
    2018:	86 17       	cp	r24, r22
    201a:	97 07       	cpc	r25, r23
    201c:	69 f4       	brne	.+26     	; 0x2038 <malloc+0x48>
    201e:	8a 81       	ldd	r24, Y+2	; 0x02
    2020:	9b 81       	ldd	r25, Y+3	; 0x03
    2022:	30 97       	sbiw	r30, 0x00	; 0
    2024:	19 f0       	breq	.+6      	; 0x202c <malloc+0x3c>
    2026:	93 83       	std	Z+3, r25	; 0x03
    2028:	82 83       	std	Z+2, r24	; 0x02
    202a:	04 c0       	rjmp	.+8      	; 0x2034 <malloc+0x44>
    202c:	90 93 6a 01 	sts	0x016A, r25
    2030:	80 93 69 01 	sts	0x0169, r24
    2034:	fe 01       	movw	r30, r28
    2036:	34 c0       	rjmp	.+104    	; 0x20a0 <malloc+0xb0>
    2038:	68 17       	cp	r22, r24
    203a:	79 07       	cpc	r23, r25
    203c:	38 f4       	brcc	.+14     	; 0x204c <malloc+0x5c>
    203e:	41 15       	cp	r20, r1
    2040:	51 05       	cpc	r21, r1
    2042:	19 f0       	breq	.+6      	; 0x204a <malloc+0x5a>
    2044:	84 17       	cp	r24, r20
    2046:	95 07       	cpc	r25, r21
    2048:	08 f4       	brcc	.+2      	; 0x204c <malloc+0x5c>
    204a:	ac 01       	movw	r20, r24
    204c:	fe 01       	movw	r30, r28
    204e:	8a 81       	ldd	r24, Y+2	; 0x02
    2050:	9b 81       	ldd	r25, Y+3	; 0x03
    2052:	9c 01       	movw	r18, r24
    2054:	e9 01       	movw	r28, r18
    2056:	20 97       	sbiw	r28, 0x00	; 0
    2058:	e9 f6       	brne	.-70     	; 0x2014 <malloc+0x24>
    205a:	41 15       	cp	r20, r1
    205c:	51 05       	cpc	r21, r1
    205e:	a9 f1       	breq	.+106    	; 0x20ca <malloc+0xda>
    2060:	ca 01       	movw	r24, r20
    2062:	86 1b       	sub	r24, r22
    2064:	97 0b       	sbc	r25, r23
    2066:	04 97       	sbiw	r24, 0x04	; 4
    2068:	08 f4       	brcc	.+2      	; 0x206c <malloc+0x7c>
    206a:	ba 01       	movw	r22, r20
    206c:	e0 e0       	ldi	r30, 0x00	; 0
    206e:	f0 e0       	ldi	r31, 0x00	; 0
    2070:	2a c0       	rjmp	.+84     	; 0x20c6 <malloc+0xd6>
    2072:	8d 91       	ld	r24, X+
    2074:	9c 91       	ld	r25, X
    2076:	11 97       	sbiw	r26, 0x01	; 1
    2078:	84 17       	cp	r24, r20
    207a:	95 07       	cpc	r25, r21
    207c:	f9 f4       	brne	.+62     	; 0x20bc <malloc+0xcc>
    207e:	64 17       	cp	r22, r20
    2080:	75 07       	cpc	r23, r21
    2082:	81 f4       	brne	.+32     	; 0x20a4 <malloc+0xb4>
    2084:	12 96       	adiw	r26, 0x02	; 2
    2086:	8d 91       	ld	r24, X+
    2088:	9c 91       	ld	r25, X
    208a:	13 97       	sbiw	r26, 0x03	; 3
    208c:	30 97       	sbiw	r30, 0x00	; 0
    208e:	19 f0       	breq	.+6      	; 0x2096 <malloc+0xa6>
    2090:	93 83       	std	Z+3, r25	; 0x03
    2092:	82 83       	std	Z+2, r24	; 0x02
    2094:	04 c0       	rjmp	.+8      	; 0x209e <malloc+0xae>
    2096:	90 93 6a 01 	sts	0x016A, r25
    209a:	80 93 69 01 	sts	0x0169, r24
    209e:	fd 01       	movw	r30, r26
    20a0:	32 96       	adiw	r30, 0x02	; 2
    20a2:	4f c0       	rjmp	.+158    	; 0x2142 <malloc+0x152>
    20a4:	ca 01       	movw	r24, r20
    20a6:	86 1b       	sub	r24, r22
    20a8:	97 0b       	sbc	r25, r23
    20aa:	fd 01       	movw	r30, r26
    20ac:	e8 0f       	add	r30, r24
    20ae:	f9 1f       	adc	r31, r25
    20b0:	61 93       	st	Z+, r22
    20b2:	71 93       	st	Z+, r23
    20b4:	02 97       	sbiw	r24, 0x02	; 2
    20b6:	8d 93       	st	X+, r24
    20b8:	9c 93       	st	X, r25
    20ba:	43 c0       	rjmp	.+134    	; 0x2142 <malloc+0x152>
    20bc:	fd 01       	movw	r30, r26
    20be:	82 81       	ldd	r24, Z+2	; 0x02
    20c0:	93 81       	ldd	r25, Z+3	; 0x03
    20c2:	9c 01       	movw	r18, r24
    20c4:	d9 01       	movw	r26, r18
    20c6:	10 97       	sbiw	r26, 0x00	; 0
    20c8:	a1 f6       	brne	.-88     	; 0x2072 <malloc+0x82>
    20ca:	80 91 67 01 	lds	r24, 0x0167
    20ce:	90 91 68 01 	lds	r25, 0x0168
    20d2:	89 2b       	or	r24, r25
    20d4:	41 f4       	brne	.+16     	; 0x20e6 <malloc+0xf6>
    20d6:	80 91 2c 01 	lds	r24, 0x012C
    20da:	90 91 2d 01 	lds	r25, 0x012D
    20de:	90 93 68 01 	sts	0x0168, r25
    20e2:	80 93 67 01 	sts	0x0167, r24
    20e6:	40 91 2e 01 	lds	r20, 0x012E
    20ea:	50 91 2f 01 	lds	r21, 0x012F
    20ee:	41 15       	cp	r20, r1
    20f0:	51 05       	cpc	r21, r1
    20f2:	41 f4       	brne	.+16     	; 0x2104 <malloc+0x114>
    20f4:	4d b7       	in	r20, 0x3d	; 61
    20f6:	5e b7       	in	r21, 0x3e	; 62
    20f8:	80 91 2a 01 	lds	r24, 0x012A
    20fc:	90 91 2b 01 	lds	r25, 0x012B
    2100:	48 1b       	sub	r20, r24
    2102:	59 0b       	sbc	r21, r25
    2104:	20 91 67 01 	lds	r18, 0x0167
    2108:	30 91 68 01 	lds	r19, 0x0168
    210c:	24 17       	cp	r18, r20
    210e:	35 07       	cpc	r19, r21
    2110:	b0 f4       	brcc	.+44     	; 0x213e <malloc+0x14e>
    2112:	ca 01       	movw	r24, r20
    2114:	82 1b       	sub	r24, r18
    2116:	93 0b       	sbc	r25, r19
    2118:	86 17       	cp	r24, r22
    211a:	97 07       	cpc	r25, r23
    211c:	80 f0       	brcs	.+32     	; 0x213e <malloc+0x14e>
    211e:	ab 01       	movw	r20, r22
    2120:	4e 5f       	subi	r20, 0xFE	; 254
    2122:	5f 4f       	sbci	r21, 0xFF	; 255
    2124:	84 17       	cp	r24, r20
    2126:	95 07       	cpc	r25, r21
    2128:	50 f0       	brcs	.+20     	; 0x213e <malloc+0x14e>
    212a:	42 0f       	add	r20, r18
    212c:	53 1f       	adc	r21, r19
    212e:	50 93 68 01 	sts	0x0168, r21
    2132:	40 93 67 01 	sts	0x0167, r20
    2136:	f9 01       	movw	r30, r18
    2138:	61 93       	st	Z+, r22
    213a:	71 93       	st	Z+, r23
    213c:	02 c0       	rjmp	.+4      	; 0x2142 <malloc+0x152>
    213e:	e0 e0       	ldi	r30, 0x00	; 0
    2140:	f0 e0       	ldi	r31, 0x00	; 0
    2142:	cf 01       	movw	r24, r30
    2144:	df 91       	pop	r29
    2146:	cf 91       	pop	r28
    2148:	08 95       	ret

0000214a <free>:
    214a:	cf 93       	push	r28
    214c:	df 93       	push	r29
    214e:	00 97       	sbiw	r24, 0x00	; 0
    2150:	09 f4       	brne	.+2      	; 0x2154 <free+0xa>
    2152:	50 c0       	rjmp	.+160    	; 0x21f4 <free+0xaa>
    2154:	ec 01       	movw	r28, r24
    2156:	22 97       	sbiw	r28, 0x02	; 2
    2158:	1b 82       	std	Y+3, r1	; 0x03
    215a:	1a 82       	std	Y+2, r1	; 0x02
    215c:	a0 91 69 01 	lds	r26, 0x0169
    2160:	b0 91 6a 01 	lds	r27, 0x016A
    2164:	10 97       	sbiw	r26, 0x00	; 0
    2166:	09 f1       	breq	.+66     	; 0x21aa <free+0x60>
    2168:	40 e0       	ldi	r20, 0x00	; 0
    216a:	50 e0       	ldi	r21, 0x00	; 0
    216c:	ac 17       	cp	r26, r28
    216e:	bd 07       	cpc	r27, r29
    2170:	08 f1       	brcs	.+66     	; 0x21b4 <free+0x6a>
    2172:	bb 83       	std	Y+3, r27	; 0x03
    2174:	aa 83       	std	Y+2, r26	; 0x02
    2176:	fe 01       	movw	r30, r28
    2178:	21 91       	ld	r18, Z+
    217a:	31 91       	ld	r19, Z+
    217c:	e2 0f       	add	r30, r18
    217e:	f3 1f       	adc	r31, r19
    2180:	ae 17       	cp	r26, r30
    2182:	bf 07       	cpc	r27, r31
    2184:	79 f4       	brne	.+30     	; 0x21a4 <free+0x5a>
    2186:	8d 91       	ld	r24, X+
    2188:	9c 91       	ld	r25, X
    218a:	11 97       	sbiw	r26, 0x01	; 1
    218c:	28 0f       	add	r18, r24
    218e:	39 1f       	adc	r19, r25
    2190:	2e 5f       	subi	r18, 0xFE	; 254
    2192:	3f 4f       	sbci	r19, 0xFF	; 255
    2194:	39 83       	std	Y+1, r19	; 0x01
    2196:	28 83       	st	Y, r18
    2198:	12 96       	adiw	r26, 0x02	; 2
    219a:	8d 91       	ld	r24, X+
    219c:	9c 91       	ld	r25, X
    219e:	13 97       	sbiw	r26, 0x03	; 3
    21a0:	9b 83       	std	Y+3, r25	; 0x03
    21a2:	8a 83       	std	Y+2, r24	; 0x02
    21a4:	41 15       	cp	r20, r1
    21a6:	51 05       	cpc	r21, r1
    21a8:	71 f4       	brne	.+28     	; 0x21c6 <free+0x7c>
    21aa:	d0 93 6a 01 	sts	0x016A, r29
    21ae:	c0 93 69 01 	sts	0x0169, r28
    21b2:	20 c0       	rjmp	.+64     	; 0x21f4 <free+0xaa>
    21b4:	12 96       	adiw	r26, 0x02	; 2
    21b6:	8d 91       	ld	r24, X+
    21b8:	9c 91       	ld	r25, X
    21ba:	13 97       	sbiw	r26, 0x03	; 3
    21bc:	ad 01       	movw	r20, r26
    21be:	00 97       	sbiw	r24, 0x00	; 0
    21c0:	11 f0       	breq	.+4      	; 0x21c6 <free+0x7c>
    21c2:	dc 01       	movw	r26, r24
    21c4:	d3 cf       	rjmp	.-90     	; 0x216c <free+0x22>
    21c6:	fa 01       	movw	r30, r20
    21c8:	d3 83       	std	Z+3, r29	; 0x03
    21ca:	c2 83       	std	Z+2, r28	; 0x02
    21cc:	21 91       	ld	r18, Z+
    21ce:	31 91       	ld	r19, Z+
    21d0:	e2 0f       	add	r30, r18
    21d2:	f3 1f       	adc	r31, r19
    21d4:	ce 17       	cp	r28, r30
    21d6:	df 07       	cpc	r29, r31
    21d8:	69 f4       	brne	.+26     	; 0x21f4 <free+0xaa>
    21da:	88 81       	ld	r24, Y
    21dc:	99 81       	ldd	r25, Y+1	; 0x01
    21de:	28 0f       	add	r18, r24
    21e0:	39 1f       	adc	r19, r25
    21e2:	2e 5f       	subi	r18, 0xFE	; 254
    21e4:	3f 4f       	sbci	r19, 0xFF	; 255
    21e6:	fa 01       	movw	r30, r20
    21e8:	31 83       	std	Z+1, r19	; 0x01
    21ea:	20 83       	st	Z, r18
    21ec:	8a 81       	ldd	r24, Y+2	; 0x02
    21ee:	9b 81       	ldd	r25, Y+3	; 0x03
    21f0:	93 83       	std	Z+3, r25	; 0x03
    21f2:	82 83       	std	Z+2, r24	; 0x02
    21f4:	df 91       	pop	r29
    21f6:	cf 91       	pop	r28
    21f8:	08 95       	ret

000021fa <fdevopen>:
    21fa:	0f 93       	push	r16
    21fc:	1f 93       	push	r17
    21fe:	cf 93       	push	r28
    2200:	df 93       	push	r29
    2202:	8c 01       	movw	r16, r24
    2204:	eb 01       	movw	r28, r22
    2206:	00 97       	sbiw	r24, 0x00	; 0
    2208:	31 f4       	brne	.+12     	; 0x2216 <fdevopen+0x1c>
    220a:	61 15       	cp	r22, r1
    220c:	71 05       	cpc	r23, r1
    220e:	19 f4       	brne	.+6      	; 0x2216 <fdevopen+0x1c>
    2210:	20 e0       	ldi	r18, 0x00	; 0
    2212:	30 e0       	ldi	r19, 0x00	; 0
    2214:	38 c0       	rjmp	.+112    	; 0x2286 <fdevopen+0x8c>
    2216:	81 e0       	ldi	r24, 0x01	; 1
    2218:	90 e0       	ldi	r25, 0x00	; 0
    221a:	6e e0       	ldi	r22, 0x0E	; 14
    221c:	70 e0       	ldi	r23, 0x00	; 0
    221e:	0e 94 49 11 	call	0x2292	; 0x2292 <calloc>
    2222:	fc 01       	movw	r30, r24
    2224:	9c 01       	movw	r18, r24
    2226:	00 97       	sbiw	r24, 0x00	; 0
    2228:	71 f1       	breq	.+92     	; 0x2286 <fdevopen+0x8c>
    222a:	80 e8       	ldi	r24, 0x80	; 128
    222c:	83 83       	std	Z+3, r24	; 0x03
    222e:	20 97       	sbiw	r28, 0x00	; 0
    2230:	71 f0       	breq	.+28     	; 0x224e <fdevopen+0x54>
    2232:	d3 87       	std	Z+11, r29	; 0x0b
    2234:	c2 87       	std	Z+10, r28	; 0x0a
    2236:	81 e8       	ldi	r24, 0x81	; 129
    2238:	83 83       	std	Z+3, r24	; 0x03
    223a:	80 91 6b 01 	lds	r24, 0x016B
    223e:	90 91 6c 01 	lds	r25, 0x016C
    2242:	89 2b       	or	r24, r25
    2244:	21 f4       	brne	.+8      	; 0x224e <fdevopen+0x54>
    2246:	f0 93 6c 01 	sts	0x016C, r31
    224a:	e0 93 6b 01 	sts	0x016B, r30
    224e:	01 15       	cp	r16, r1
    2250:	11 05       	cpc	r17, r1
    2252:	c9 f0       	breq	.+50     	; 0x2286 <fdevopen+0x8c>
    2254:	11 87       	std	Z+9, r17	; 0x09
    2256:	00 87       	std	Z+8, r16	; 0x08
    2258:	83 81       	ldd	r24, Z+3	; 0x03
    225a:	82 60       	ori	r24, 0x02	; 2
    225c:	83 83       	std	Z+3, r24	; 0x03
    225e:	80 91 6d 01 	lds	r24, 0x016D
    2262:	90 91 6e 01 	lds	r25, 0x016E
    2266:	89 2b       	or	r24, r25
    2268:	71 f4       	brne	.+28     	; 0x2286 <fdevopen+0x8c>
    226a:	f0 93 6e 01 	sts	0x016E, r31
    226e:	e0 93 6d 01 	sts	0x016D, r30
    2272:	80 91 6f 01 	lds	r24, 0x016F
    2276:	90 91 70 01 	lds	r25, 0x0170
    227a:	89 2b       	or	r24, r25
    227c:	21 f4       	brne	.+8      	; 0x2286 <fdevopen+0x8c>
    227e:	f0 93 70 01 	sts	0x0170, r31
    2282:	e0 93 6f 01 	sts	0x016F, r30
    2286:	c9 01       	movw	r24, r18
    2288:	df 91       	pop	r29
    228a:	cf 91       	pop	r28
    228c:	1f 91       	pop	r17
    228e:	0f 91       	pop	r16
    2290:	08 95       	ret

00002292 <calloc>:
    2292:	0f 93       	push	r16
    2294:	1f 93       	push	r17
    2296:	cf 93       	push	r28
    2298:	df 93       	push	r29
    229a:	68 9f       	mul	r22, r24
    229c:	80 01       	movw	r16, r0
    229e:	69 9f       	mul	r22, r25
    22a0:	10 0d       	add	r17, r0
    22a2:	78 9f       	mul	r23, r24
    22a4:	10 0d       	add	r17, r0
    22a6:	11 24       	eor	r1, r1
    22a8:	c8 01       	movw	r24, r16
    22aa:	0e 94 f8 0f 	call	0x1ff0	; 0x1ff0 <malloc>
    22ae:	ec 01       	movw	r28, r24
    22b0:	00 97       	sbiw	r24, 0x00	; 0
    22b2:	29 f0       	breq	.+10     	; 0x22be <calloc+0x2c>
    22b4:	60 e0       	ldi	r22, 0x00	; 0
    22b6:	70 e0       	ldi	r23, 0x00	; 0
    22b8:	a8 01       	movw	r20, r16
    22ba:	0e 94 65 11 	call	0x22ca	; 0x22ca <memset>
    22be:	ce 01       	movw	r24, r28
    22c0:	df 91       	pop	r29
    22c2:	cf 91       	pop	r28
    22c4:	1f 91       	pop	r17
    22c6:	0f 91       	pop	r16
    22c8:	08 95       	ret

000022ca <memset>:
    22ca:	dc 01       	movw	r26, r24
    22cc:	01 c0       	rjmp	.+2      	; 0x22d0 <memset+0x6>
    22ce:	6d 93       	st	X+, r22
    22d0:	41 50       	subi	r20, 0x01	; 1
    22d2:	50 40       	sbci	r21, 0x00	; 0
    22d4:	e0 f7       	brcc	.-8      	; 0x22ce <memset+0x4>
    22d6:	08 95       	ret

000022d8 <_exit>:
    22d8:	f8 94       	cli

000022da <__stop_program>:
    22da:	ff cf       	rjmp	.-2      	; 0x22da <__stop_program>
