
shell_program.elf:     file format elf32-avr

Sections:
Idx Name          Size      VMA       LMA       File off  Algn
  0 .data         0000001c  00800100  0000150c  000015a0  2**0
                  CONTENTS, ALLOC, LOAD, DATA
  1 .text         0000150c  00000000  00000000  00000094  2**1
                  CONTENTS, ALLOC, LOAD, READONLY, CODE
  2 .bss          00000036  0080011c  0080011c  000015bc  2**0
                  ALLOC
  3 .stab         00003b58  00000000  00000000  000015bc  2**2
                  CONTENTS, READONLY, DEBUGGING
  4 .stabstr      00004273  00000000  00000000  00005114  2**0
                  CONTENTS, READONLY, DEBUGGING
  5 .debug_aranges 00000020  00000000  00000000  00009387  2**0
                  CONTENTS, READONLY, DEBUGGING
  6 .debug_pubnames 0000023c  00000000  00000000  000093a7  2**0
                  CONTENTS, READONLY, DEBUGGING
  7 .debug_info   000009f9  00000000  00000000  000095e3  2**0
                  CONTENTS, READONLY, DEBUGGING
  8 .debug_abbrev 0000033e  00000000  00000000  00009fdc  2**0
                  CONTENTS, READONLY, DEBUGGING
  9 .debug_line   000006d4  00000000  00000000  0000a31a  2**0
                  CONTENTS, READONLY, DEBUGGING
 10 .debug_frame  000001f0  00000000  00000000  0000a9f0  2**2
                  CONTENTS, READONLY, DEBUGGING
 11 .debug_str    000005c2  00000000  00000000  0000abe0  2**0
                  CONTENTS, READONLY, DEBUGGING
 12 .debug_loc    00000232  00000000  00000000  0000b1a2  2**0
                  CONTENTS, READONLY, DEBUGGING

Disassembly of section .text:

00000000 <__vectors>:
       0:	0c 94 46 00 	jmp	0x8c	; 0x8c <__ctors_end>
       4:	0c 94 65 00 	jmp	0xca	; 0xca <__bad_interrupt>
       8:	0c 94 65 00 	jmp	0xca	; 0xca <__bad_interrupt>
       c:	0c 94 65 00 	jmp	0xca	; 0xca <__bad_interrupt>
      10:	0c 94 65 00 	jmp	0xca	; 0xca <__bad_interrupt>
      14:	0c 94 65 00 	jmp	0xca	; 0xca <__bad_interrupt>
      18:	0c 94 65 00 	jmp	0xca	; 0xca <__bad_interrupt>
      1c:	0c 94 65 00 	jmp	0xca	; 0xca <__bad_interrupt>
      20:	0c 94 65 00 	jmp	0xca	; 0xca <__bad_interrupt>
      24:	0c 94 65 00 	jmp	0xca	; 0xca <__bad_interrupt>
      28:	0c 94 65 00 	jmp	0xca	; 0xca <__bad_interrupt>
      2c:	0c 94 3b 06 	jmp	0xc76	; 0xc76 <__vector_11>
      30:	0c 94 65 00 	jmp	0xca	; 0xca <__bad_interrupt>
      34:	0c 94 65 00 	jmp	0xca	; 0xca <__bad_interrupt>
      38:	0c 94 65 00 	jmp	0xca	; 0xca <__bad_interrupt>
      3c:	0c 94 65 00 	jmp	0xca	; 0xca <__bad_interrupt>
      40:	0c 94 65 00 	jmp	0xca	; 0xca <__bad_interrupt>
      44:	0c 94 65 00 	jmp	0xca	; 0xca <__bad_interrupt>
      48:	0c 94 65 00 	jmp	0xca	; 0xca <__bad_interrupt>
      4c:	0c 94 65 00 	jmp	0xca	; 0xca <__bad_interrupt>
      50:	0c 94 65 00 	jmp	0xca	; 0xca <__bad_interrupt>
      54:	0c 94 65 00 	jmp	0xca	; 0xca <__bad_interrupt>
      58:	0c 94 65 00 	jmp	0xca	; 0xca <__bad_interrupt>
      5c:	0c 94 65 00 	jmp	0xca	; 0xca <__bad_interrupt>
      60:	0c 94 65 00 	jmp	0xca	; 0xca <__bad_interrupt>
      64:	0c 94 65 00 	jmp	0xca	; 0xca <__bad_interrupt>
      68:	0c 94 65 00 	jmp	0xca	; 0xca <__bad_interrupt>
      6c:	0c 94 65 00 	jmp	0xca	; 0xca <__bad_interrupt>
      70:	0c 94 65 00 	jmp	0xca	; 0xca <__bad_interrupt>
      74:	0c 94 65 00 	jmp	0xca	; 0xca <__bad_interrupt>
      78:	0c 94 65 00 	jmp	0xca	; 0xca <__bad_interrupt>
      7c:	0c 94 65 00 	jmp	0xca	; 0xca <__bad_interrupt>
      80:	0c 94 65 00 	jmp	0xca	; 0xca <__bad_interrupt>
      84:	0c 94 65 00 	jmp	0xca	; 0xca <__bad_interrupt>
      88:	0c 94 65 00 	jmp	0xca	; 0xca <__bad_interrupt>

0000008c <__ctors_end>:
      8c:	11 24       	eor	r1, r1
      8e:	1f be       	out	0x3f, r1	; 63
      90:	cf ef       	ldi	r28, 0xFF	; 255
      92:	d0 e4       	ldi	r29, 0x40	; 64
      94:	de bf       	out	0x3e, r29	; 62
      96:	cd bf       	out	0x3d, r28	; 61

00000098 <__do_copy_data>:
      98:	11 e0       	ldi	r17, 0x01	; 1
      9a:	a0 e0       	ldi	r26, 0x00	; 0
      9c:	b1 e0       	ldi	r27, 0x01	; 1
      9e:	ec e0       	ldi	r30, 0x0C	; 12
      a0:	f5 e1       	ldi	r31, 0x15	; 21
      a2:	00 e0       	ldi	r16, 0x00	; 0
      a4:	0b bf       	out	0x3b, r16	; 59
      a6:	02 c0       	rjmp	.+4      	; 0xac <__do_copy_data+0x14>
      a8:	07 90       	elpm	r0, Z+
      aa:	0d 92       	st	X+, r0
      ac:	ac 31       	cpi	r26, 0x1C	; 28
      ae:	b1 07       	cpc	r27, r17
      b0:	d9 f7       	brne	.-10     	; 0xa8 <__do_copy_data+0x10>

000000b2 <__do_clear_bss>:
      b2:	11 e0       	ldi	r17, 0x01	; 1
      b4:	ac e1       	ldi	r26, 0x1C	; 28
      b6:	b1 e0       	ldi	r27, 0x01	; 1
      b8:	01 c0       	rjmp	.+2      	; 0xbc <.do_clear_bss_start>

000000ba <.do_clear_bss_loop>:
      ba:	1d 92       	st	X+, r1

000000bc <.do_clear_bss_start>:
      bc:	a2 35       	cpi	r26, 0x52	; 82
      be:	b1 07       	cpc	r27, r17
      c0:	e1 f7       	brne	.-8      	; 0xba <.do_clear_bss_loop>
      c2:	0e 94 fe 01 	call	0x3fc	; 0x3fc <main>
      c6:	0c 94 84 0a 	jmp	0x1508	; 0x1508 <_exit>

000000ca <__bad_interrupt>:
      ca:	0c 94 00 00 	jmp	0	; 0x0 <__vectors>

000000ce <_ZN16OrangutanDigital9setOutputEhh>:

	// high-level method for setting the specified pin as an output with the specified output state.
	// An outputState value of 0 will cause the pin to drive low; a value of 1 will cause the pin to 
	// drive high.  A value of 0xFF (255) will toggle the output state of the pin (i.e. high -> low and
	// low -> high).
	inline static void setOutput(unsigned char pin, unsigned char outputState)
      ce:	48 2f       	mov	r20, r24
		io->pinRegister = 0;
		io->portRegister = 0;
		io->ddrRegister = 0;
		io->bitmask = 0;

		if (pin < 8)			// pin 0 = PD0, ..., 7 = PD7
      d0:	88 30       	cpi	r24, 0x08	; 8
      d2:	68 f4       	brcc	.+26     	; 0xee <_ZN16OrangutanDigital9setOutputEhh+0x20>
		{
			io->pinRegister = (unsigned char*)&PIND;
			io->portRegister = (unsigned char*)&PORTD;
			io->ddrRegister = (unsigned char*)&DDRD;
			io->bitmask = 1 << pin;
      d4:	81 e0       	ldi	r24, 0x01	; 1
      d6:	90 e0       	ldi	r25, 0x00	; 0
      d8:	02 c0       	rjmp	.+4      	; 0xde <_ZN16OrangutanDigital9setOutputEhh+0x10>
      da:	88 0f       	add	r24, r24
      dc:	99 1f       	adc	r25, r25
      de:	4a 95       	dec	r20
      e0:	e2 f7       	brpl	.-8      	; 0xda <_ZN16OrangutanDigital9setOutputEhh+0xc>
      e2:	28 2f       	mov	r18, r24
      e4:	aa e2       	ldi	r26, 0x2A	; 42
      e6:	b0 e0       	ldi	r27, 0x00	; 0
      e8:	eb e2       	ldi	r30, 0x2B	; 43
      ea:	f0 e0       	ldi	r31, 0x00	; 0
      ec:	3e c0       	rjmp	.+124    	; 0x16a <_ZN16OrangutanDigital9setOutputEhh+0x9c>
		}

#if defined(_ORANGUTAN_SVP) || defined(_ORANGUTAN_X2)

		else if (pin < 16)		// pin 8 = PB0, ..., 15 = PB7
      ee:	80 31       	cpi	r24, 0x10	; 16
      f0:	88 f4       	brcc	.+34     	; 0x114 <_ZN16OrangutanDigital9setOutputEhh+0x46>
		{
			io->pinRegister = (unsigned char*)&PINB;
			io->portRegister = (unsigned char*)&PORTB;
			io->ddrRegister = (unsigned char*)&DDRB;
			io->bitmask = 1 << (pin - 8);
      f2:	28 2f       	mov	r18, r24
      f4:	30 e0       	ldi	r19, 0x00	; 0
      f6:	28 50       	subi	r18, 0x08	; 8
      f8:	30 40       	sbci	r19, 0x00	; 0
      fa:	81 e0       	ldi	r24, 0x01	; 1
      fc:	90 e0       	ldi	r25, 0x00	; 0
      fe:	02 c0       	rjmp	.+4      	; 0x104 <_ZN16OrangutanDigital9setOutputEhh+0x36>
     100:	88 0f       	add	r24, r24
     102:	99 1f       	adc	r25, r25
     104:	2a 95       	dec	r18
     106:	e2 f7       	brpl	.-8      	; 0x100 <_ZN16OrangutanDigital9setOutputEhh+0x32>
     108:	28 2f       	mov	r18, r24
     10a:	a4 e2       	ldi	r26, 0x24	; 36
     10c:	b0 e0       	ldi	r27, 0x00	; 0
     10e:	e5 e2       	ldi	r30, 0x25	; 37
     110:	f0 e0       	ldi	r31, 0x00	; 0
     112:	2b c0       	rjmp	.+86     	; 0x16a <_ZN16OrangutanDigital9setOutputEhh+0x9c>
		}
		else if (pin < 24)		// pin 16 = PC0, ..., 23 = PC7
     114:	88 31       	cpi	r24, 0x18	; 24
     116:	88 f4       	brcc	.+34     	; 0x13a <_ZN16OrangutanDigital9setOutputEhh+0x6c>
		{
			io->pinRegister = (unsigned char*)&PINC;
			io->portRegister = (unsigned char*)&PORTC;
			io->ddrRegister = (unsigned char*)&DDRC;
			io->bitmask = 1 << (pin - 16);
     118:	28 2f       	mov	r18, r24
     11a:	30 e0       	ldi	r19, 0x00	; 0
     11c:	20 51       	subi	r18, 0x10	; 16
     11e:	30 40       	sbci	r19, 0x00	; 0
     120:	81 e0       	ldi	r24, 0x01	; 1
     122:	90 e0       	ldi	r25, 0x00	; 0
     124:	02 c0       	rjmp	.+4      	; 0x12a <_ZN16OrangutanDigital9setOutputEhh+0x5c>
     126:	88 0f       	add	r24, r24
     128:	99 1f       	adc	r25, r25
     12a:	2a 95       	dec	r18
     12c:	e2 f7       	brpl	.-8      	; 0x126 <_ZN16OrangutanDigital9setOutputEhh+0x58>
     12e:	28 2f       	mov	r18, r24
     130:	a7 e2       	ldi	r26, 0x27	; 39
     132:	b0 e0       	ldi	r27, 0x00	; 0
     134:	e8 e2       	ldi	r30, 0x28	; 40
     136:	f0 e0       	ldi	r31, 0x00	; 0
     138:	18 c0       	rjmp	.+48     	; 0x16a <_ZN16OrangutanDigital9setOutputEhh+0x9c>
		}
		else if (pin < 32)		// pin 24 = PA7, ..., 31 = PA0
     13a:	80 32       	cpi	r24, 0x20	; 32
     13c:	30 f0       	brcs	.+12     	; 0x14a <_ZN16OrangutanDigital9setOutputEhh+0x7c>
     13e:	20 e0       	ldi	r18, 0x00	; 0
     140:	a0 e0       	ldi	r26, 0x00	; 0
     142:	b0 e0       	ldi	r27, 0x00	; 0
     144:	e0 e0       	ldi	r30, 0x00	; 0
     146:	f0 e0       	ldi	r31, 0x00	; 0
     148:	10 c0       	rjmp	.+32     	; 0x16a <_ZN16OrangutanDigital9setOutputEhh+0x9c>
		{
			io->pinRegister = (unsigned char*)&PINA;
			io->portRegister = (unsigned char*)&PORTA;
			io->ddrRegister = (unsigned char*)&DDRA;
			io->bitmask = 1 << (31 - pin);
     14a:	2f e1       	ldi	r18, 0x1F	; 31
     14c:	30 e0       	ldi	r19, 0x00	; 0
     14e:	28 1b       	sub	r18, r24
     150:	31 09       	sbc	r19, r1
     152:	81 e0       	ldi	r24, 0x01	; 1
     154:	90 e0       	ldi	r25, 0x00	; 0
     156:	02 c0       	rjmp	.+4      	; 0x15c <_ZN16OrangutanDigital9setOutputEhh+0x8e>
     158:	88 0f       	add	r24, r24
     15a:	99 1f       	adc	r25, r25
     15c:	2a 95       	dec	r18
     15e:	e2 f7       	brpl	.-8      	; 0x158 <_ZN16OrangutanDigital9setOutputEhh+0x8a>
     160:	28 2f       	mov	r18, r24
     162:	a1 e2       	ldi	r26, 0x21	; 33
     164:	b0 e0       	ldi	r27, 0x00	; 0
     166:	e2 e2       	ldi	r30, 0x22	; 34
     168:	f0 e0       	ldi	r31, 0x00	; 0
	// setting it as high-impedance (val = 0) or enabling the internal pull-up (val = 1).  If the pin is an
	// output, this lets you choose between driving low (val = 0) and driving high (val = 1).
	// NOTE: if val is 0xFF (255), this method will toggle the PORT register pin(s).
	inline static void setOutputValue(struct IOStruct* ioPin, unsigned char val)
	{
		if (val == 0xFF)
     16a:	6f 3f       	cpi	r22, 0xFF	; 255
     16c:	19 f4       	brne	.+6      	; 0x174 <_ZN16OrangutanDigital9setOutputEhh+0xa6>
			*(ioPin->portRegister) ^= ioPin->bitmask;
     16e:	80 81       	ld	r24, Z
     170:	82 27       	eor	r24, r18
     172:	09 c0       	rjmp	.+18     	; 0x186 <_ZN16OrangutanDigital9setOutputEhh+0xb8>
		else if (val)
     174:	66 23       	and	r22, r22
     176:	19 f0       	breq	.+6      	; 0x17e <_ZN16OrangutanDigital9setOutputEhh+0xb0>
			*(ioPin->portRegister) |= ioPin->bitmask;
     178:	80 81       	ld	r24, Z
     17a:	82 2b       	or	r24, r18
     17c:	04 c0       	rjmp	.+8      	; 0x186 <_ZN16OrangutanDigital9setOutputEhh+0xb8>
		else
			*(ioPin->portRegister) &= ~ioPin->bitmask;
     17e:	90 81       	ld	r25, Z
     180:	82 2f       	mov	r24, r18
     182:	80 95       	com	r24
     184:	89 23       	and	r24, r25
     186:	80 83       	st	Z, r24
	// low-level method for setting the data direction (i.e. input or output) of an pin or set of pins
	// described by an IOStruct pointer.
	inline static void setDataDirection(struct IOStruct* ioPin, unsigned char val)
	{
		if (val)
			*(ioPin->ddrRegister) |= ioPin->bitmask;
     188:	8c 91       	ld	r24, X
     18a:	82 2b       	or	r24, r18
     18c:	8c 93       	st	X, r24
	{
		struct IOStruct registers;
		getIORegisters(&registers, pin);
		setOutputValue(&registers, outputState);
		setDataDirection(&registers, 1);
	}
     18e:	08 95       	ret

00000190 <__cxa_guard_acquire>:

extern "C" int __cxa_guard_acquire(__guard *); 
extern "C" void __cxa_guard_release (__guard *); 
extern "C" void __cxa_guard_abort (__guard *); 

int __cxa_guard_acquire(__guard *g) {return !*(char *)(g);}; 
     190:	fc 01       	movw	r30, r24
     192:	20 e0       	ldi	r18, 0x00	; 0
     194:	30 e0       	ldi	r19, 0x00	; 0
     196:	80 81       	ld	r24, Z
     198:	88 23       	and	r24, r24
     19a:	11 f4       	brne	.+4      	; 0x1a0 <__cxa_guard_acquire+0x10>
     19c:	21 e0       	ldi	r18, 0x01	; 1
     19e:	30 e0       	ldi	r19, 0x00	; 0
     1a0:	c9 01       	movw	r24, r18
     1a2:	08 95       	ret

000001a4 <__cxa_guard_release>:
void __cxa_guard_release (__guard *g) {*(char *)g = 1;}; 
     1a4:	fc 01       	movw	r30, r24
     1a6:	81 e0       	ldi	r24, 0x01	; 1
     1a8:	80 83       	st	Z, r24
     1aa:	08 95       	ret

000001ac <__cxa_guard_abort>:
void __cxa_guard_abort (__guard *) {}; 
     1ac:	08 95       	ret

000001ae <__cxa_pure_virtual>:

extern "C" void __cxa_pure_virtual(void); 
void __cxa_pure_virtual(void) {}; 
     1ae:	08 95       	ret

000001b0 <_Z14position_platev>:
int position_plate()
{
  //motors? pneumatics? unknown as of now
  
  return 0;
}
     1b0:	80 e0       	ldi	r24, 0x00	; 0
     1b2:	90 e0       	ldi	r25, 0x00	; 0
     1b4:	08 95       	ret

000001b6 <_Z11check_platev>:
	{
	  eject_plate();//will need to change to "unposition plate" or some such if ejection is on opposite end
	  return 1;
	}
  }
}
     1b6:	80 e0       	ldi	r24, 0x00	; 0
     1b8:	90 e0       	ldi	r25, 0x00	; 0
     1ba:	08 95       	ret

000001bc <_Z18switch_to_backwardv>:
  return 0;
}

int switch_to_backward()
{
  OrangutanDigital::setOutput(DIR_PIN, LOW);
     1bc:	83 e1       	ldi	r24, 0x13	; 19
     1be:	60 e0       	ldi	r22, 0x00	; 0
     1c0:	0e 94 67 00 	call	0xce	; 0xce <_ZN16OrangutanDigital9setOutputEhh>
  return 0;
}
     1c4:	80 e0       	ldi	r24, 0x00	; 0
     1c6:	90 e0       	ldi	r25, 0x00	; 0
     1c8:	08 95       	ret

000001ca <_Z17switch_to_forwardv>:

int switch_to_forward()
{
  OrangutanDigital::setOutput(DIR_PIN, HIGH);
     1ca:	83 e1       	ldi	r24, 0x13	; 19
     1cc:	61 e0       	ldi	r22, 0x01	; 1
     1ce:	0e 94 67 00 	call	0xce	; 0xce <_ZN16OrangutanDigital9setOutputEhh>
  return 0;
}
     1d2:	80 e0       	ldi	r24, 0x00	; 0
     1d4:	90 e0       	ldi	r25, 0x00	; 0
     1d6:	08 95       	ret

000001d8 <_Z13turn_on_brushi>:

int turn_on_brush(int p)
{
  //OrangutanDigital::setOutput(brush#p,HIGH);
  return 0;
}
     1d8:	80 e0       	ldi	r24, 0x00	; 0
     1da:	90 e0       	ldi	r25, 0x00	; 0
     1dc:	08 95       	ret

000001de <_Z14turn_off_brushi>:

int turn_off_brush(int p)
{
  //OrangutanDigital::setOutput(brush#p, LOW);
  return 0;
}
     1de:	80 e0       	ldi	r24, 0x00	; 0
     1e0:	90 e0       	ldi	r25, 0x00	; 0
     1e2:	08 95       	ret

000001e4 <_Z13turn_on_razorv>:

int turn_on_razor()
{
  //OrangutanDigital::setOutput(razor, HIGH); or whatever output is appropriate
  return 0;
}
     1e4:	80 e0       	ldi	r24, 0x00	; 0
     1e6:	90 e0       	ldi	r25, 0x00	; 0
     1e8:	08 95       	ret

000001ea <_Z14turn_off_razorv>:

int turn_off_razor()
{
  //OrangutanDigital::setOutput(razor, LOW); or whatever output is appropriate
  return 0;
}
     1ea:	80 e0       	ldi	r24, 0x00	; 0
     1ec:	90 e0       	ldi	r25, 0x00	; 0
     1ee:	08 95       	ret

000001f0 <_Z11eject_platev>:

int eject_plate()
{
  //do what is necessary to eject plate--motors, pneumatics?
  return 0;
}
     1f0:	80 e0       	ldi	r24, 0x00	; 0
     1f2:	90 e0       	ldi	r25, 0x00	; 0
     1f4:	08 95       	ret

000001f6 <_Z6at_endv>:

bool at_end()
{
  //check steps?  check sensors?
  return false;
}
     1f6:	80 e0       	ldi	r24, 0x00	; 0
     1f8:	08 95       	ret

000001fa <_Z8at_frontv>:

bool at_front()
{
  //check steps?  check sensors?
  return false;
}
     1fa:	80 e0       	ldi	r24, 0x00	; 0
     1fc:	08 95       	ret

000001fe <_Z6at_endi>:


bool at_end(int s)
     1fe:	20 e0       	ldi	r18, 0x00	; 0
     200:	80 56       	subi	r24, 0x60	; 96
     202:	99 40       	sbci	r25, 0x09	; 9
     204:	09 f4       	brne	.+2      	; 0x208 <_Z6at_endi+0xa>
     206:	21 e0       	ldi	r18, 0x01	; 1
{
  if(s == NUM_STEPS * NUM_PANELS)
    return true;
  else return false;
}
     208:	82 2f       	mov	r24, r18
     20a:	08 95       	ret

0000020c <_Z8at_fronti>:

bool at_front(int s)
     20c:	20 e0       	ldi	r18, 0x00	; 0
     20e:	80 56       	subi	r24, 0x60	; 96
     210:	99 40       	sbci	r25, 0x09	; 9
     212:	09 f4       	brne	.+2      	; 0x216 <_Z8at_fronti+0xa>
     214:	21 e0       	ldi	r18, 0x01	; 1
{
  if(s == NUM_STEPS * NUM_PANELS)
    return true;
  else return false;
}
     216:	82 2f       	mov	r24, r18
     218:	08 95       	ret

0000021a <_Z10raise_trayv>:
}

int raise_tray()
{
  //send signal to pneumatics
  OrangutanDigital::setOutput(PNEUMATICS_OUTPUT, HIGH);
     21a:	82 e1       	ldi	r24, 0x12	; 18
     21c:	61 e0       	ldi	r22, 0x01	; 1
     21e:	0e 94 67 00 	call	0xce	; 0xce <_ZN16OrangutanDigital9setOutputEhh>
// another C++ file.
inline unsigned long get_ms() { return OrangutanTime::ms(); }
inline unsigned long millis() { return OrangutanTime::ms(); }

inline void delay(unsigned int milliseconds) { OrangutanTime::delayMilliseconds(milliseconds); }
inline void delay_ms(unsigned int milliseconds) { OrangutanTime::delayMilliseconds(milliseconds); }
     222:	82 e0       	ldi	r24, 0x02	; 2
     224:	90 e0       	ldi	r25, 0x00	; 0
     226:	0e 94 a6 06 	call	0xd4c	; 0xd4c <_ZN13OrangutanTime17delayMillisecondsEj>
  delay_ms(2);

  OrangutanDigital::setOutput(PNEUMATICS_OUTPUT, LOW);
     22a:	82 e1       	ldi	r24, 0x12	; 18
     22c:	60 e0       	ldi	r22, 0x00	; 0
     22e:	0e 94 67 00 	call	0xce	; 0xce <_ZN16OrangutanDigital9setOutputEhh>
     232:	82 e0       	ldi	r24, 0x02	; 2
     234:	90 e0       	ldi	r25, 0x00	; 0
     236:	0e 94 a6 06 	call	0xd4c	; 0xd4c <_ZN13OrangutanTime17delayMillisecondsEj>
  delay_ms(2);

  delay_ms(PNEUMATIC_DELAY);
  return 0;
}
     23a:	8c e2       	ldi	r24, 0x2C	; 44
     23c:	91 e0       	ldi	r25, 0x01	; 1
     23e:	0e 94 a6 06 	call	0xd4c	; 0xd4c <_ZN13OrangutanTime17delayMillisecondsEj>
     242:	80 e0       	ldi	r24, 0x00	; 0
     244:	90 e0       	ldi	r25, 0x00	; 0
     246:	08 95       	ret

00000248 <_Z16undo_vacuum_sealv>:
}

int undo_vacuum_seal()
{
  //send signal to compressor
  OrangutanDigital::setOutput(VACUUM_OUTPUT, HIGH);
     248:	81 e1       	ldi	r24, 0x11	; 17
     24a:	61 e0       	ldi	r22, 0x01	; 1
     24c:	0e 94 67 00 	call	0xce	; 0xce <_ZN16OrangutanDigital9setOutputEhh>
     250:	82 e0       	ldi	r24, 0x02	; 2
     252:	90 e0       	ldi	r25, 0x00	; 0
     254:	0e 94 a6 06 	call	0xd4c	; 0xd4c <_ZN13OrangutanTime17delayMillisecondsEj>
  delay_ms(2);

  OrangutanDigital::setOutput(VACUUM_OUTPUT, LOW);
     258:	81 e1       	ldi	r24, 0x11	; 17
     25a:	60 e0       	ldi	r22, 0x00	; 0
     25c:	0e 94 67 00 	call	0xce	; 0xce <_ZN16OrangutanDigital9setOutputEhh>
     260:	82 e0       	ldi	r24, 0x02	; 2
     262:	90 e0       	ldi	r25, 0x00	; 0
     264:	0e 94 a6 06 	call	0xd4c	; 0xd4c <_ZN13OrangutanTime17delayMillisecondsEj>
  delay_ms(2);

  return 0;
}
     268:	80 e0       	ldi	r24, 0x00	; 0
     26a:	90 e0       	ldi	r25, 0x00	; 0
     26c:	08 95       	ret

0000026e <_Z12unload_platev>:



int unload_plate()
{
  undo_vacuum_seal();
     26e:	0e 94 24 01 	call	0x248	; 0x248 <_Z16undo_vacuum_sealv>
  raise_tray();
     272:	0e 94 0d 01 	call	0x21a	; 0x21a <_Z10raise_trayv>
  eject_plate();
  return 0;
}
     276:	80 e0       	ldi	r24, 0x00	; 0
     278:	90 e0       	ldi	r25, 0x00	; 0
     27a:	08 95       	ret

0000027c <_Z11vacuum_sealv>:
}

int vacuum_seal()
{
  //send signal to compressor
  OrangutanDigital::setOutput(VACUUM_OUTPUT, HIGH);
     27c:	81 e1       	ldi	r24, 0x11	; 17
     27e:	61 e0       	ldi	r22, 0x01	; 1
     280:	0e 94 67 00 	call	0xce	; 0xce <_ZN16OrangutanDigital9setOutputEhh>
     284:	82 e0       	ldi	r24, 0x02	; 2
     286:	90 e0       	ldi	r25, 0x00	; 0
     288:	0e 94 a6 06 	call	0xd4c	; 0xd4c <_ZN13OrangutanTime17delayMillisecondsEj>
  delay_ms(2);

  OrangutanDigital::setOutput(VACUUM_OUTPUT, LOW);
     28c:	81 e1       	ldi	r24, 0x11	; 17
     28e:	60 e0       	ldi	r22, 0x00	; 0
     290:	0e 94 67 00 	call	0xce	; 0xce <_ZN16OrangutanDigital9setOutputEhh>
     294:	82 e0       	ldi	r24, 0x02	; 2
     296:	90 e0       	ldi	r25, 0x00	; 0
     298:	0e 94 a6 06 	call	0xd4c	; 0xd4c <_ZN13OrangutanTime17delayMillisecondsEj>
  delay_ms(2);

  return 0;
}
     29c:	80 e0       	ldi	r24, 0x00	; 0
     29e:	90 e0       	ldi	r25, 0x00	; 0
     2a0:	08 95       	ret

000002a2 <_Z10lower_trayv>:
}

int lower_tray()
{
  //send output to pneumatics
  OrangutanDigital::setOutput(PNEUMATICS_OUTPUT, HIGH);
     2a2:	82 e1       	ldi	r24, 0x12	; 18
     2a4:	61 e0       	ldi	r22, 0x01	; 1
     2a6:	0e 94 67 00 	call	0xce	; 0xce <_ZN16OrangutanDigital9setOutputEhh>
     2aa:	82 e0       	ldi	r24, 0x02	; 2
     2ac:	90 e0       	ldi	r25, 0x00	; 0
     2ae:	0e 94 a6 06 	call	0xd4c	; 0xd4c <_ZN13OrangutanTime17delayMillisecondsEj>
  delay_ms(2);

  OrangutanDigital::setOutput(PNEUMATICS_OUTPUT, LOW);
     2b2:	82 e1       	ldi	r24, 0x12	; 18
     2b4:	60 e0       	ldi	r22, 0x00	; 0
     2b6:	0e 94 67 00 	call	0xce	; 0xce <_ZN16OrangutanDigital9setOutputEhh>
     2ba:	82 e0       	ldi	r24, 0x02	; 2
     2bc:	90 e0       	ldi	r25, 0x00	; 0
     2be:	0e 94 a6 06 	call	0xd4c	; 0xd4c <_ZN13OrangutanTime17delayMillisecondsEj>
  delay_ms(2);

  delay_ms(PNEUMATIC_DELAY);
  return 0;
}
     2c2:	8c e2       	ldi	r24, 0x2C	; 44
     2c4:	91 e0       	ldi	r25, 0x01	; 1
     2c6:	0e 94 a6 06 	call	0xd4c	; 0xd4c <_ZN13OrangutanTime17delayMillisecondsEj>
     2ca:	80 e0       	ldi	r24, 0x00	; 0
     2cc:	90 e0       	ldi	r25, 0x00	; 0
     2ce:	08 95       	ret

000002d0 <_Z9air_cleanv>:
}

int air_clean()
{
  //send output to puff air
  OrangutanDigital::setOutput(AIR_PUFF_OUTPUT, HIGH);
     2d0:	80 e1       	ldi	r24, 0x10	; 16
     2d2:	61 e0       	ldi	r22, 0x01	; 1
     2d4:	0e 94 67 00 	call	0xce	; 0xce <_ZN16OrangutanDigital9setOutputEhh>
     2d8:	82 e0       	ldi	r24, 0x02	; 2
     2da:	90 e0       	ldi	r25, 0x00	; 0
     2dc:	0e 94 a6 06 	call	0xd4c	; 0xd4c <_ZN13OrangutanTime17delayMillisecondsEj>
  delay_ms(2);

  OrangutanDigital::setOutput(AIR_PUFF_OUTPUT, LOW);
     2e0:	80 e1       	ldi	r24, 0x10	; 16
     2e2:	60 e0       	ldi	r22, 0x00	; 0
     2e4:	0e 94 67 00 	call	0xce	; 0xce <_ZN16OrangutanDigital9setOutputEhh>
     2e8:	82 e0       	ldi	r24, 0x02	; 2
     2ea:	90 e0       	ldi	r25, 0x00	; 0
     2ec:	0e 94 a6 06 	call	0xd4c	; 0xd4c <_ZN13OrangutanTime17delayMillisecondsEj>
  delay_ms(2);

  return 0;
}
     2f0:	80 e0       	ldi	r24, 0x00	; 0
     2f2:	90 e0       	ldi	r25, 0x00	; 0
     2f4:	08 95       	ret

000002f6 <_Z10load_platev>:


int load_plate()
{
  position_plate();
  air_clean();
     2f6:	0e 94 68 01 	call	0x2d0	; 0x2d0 <_Z9air_cleanv>
  check_plate();
  lower_tray();
     2fa:	0e 94 51 01 	call	0x2a2	; 0x2a2 <_Z10lower_trayv>
  vacuum_seal();
     2fe:	0e 94 3e 01 	call	0x27c	; 0x27c <_Z11vacuum_sealv>
  
  return 0;
}
     302:	80 e0       	ldi	r24, 0x00	; 0
     304:	90 e0       	ldi	r25, 0x00	; 0
     306:	08 95       	ret

00000308 <_Z13step_backwardi>:
    

  return 0;
}

int step_backward(int stps)
     308:	0f 93       	push	r16
     30a:	1f 93       	push	r17
     30c:	cf 93       	push	r28
     30e:	df 93       	push	r29
     310:	8c 01       	movw	r16, r24
{
  //send pulse to step once
  OrangutanDigital::setOutput(STEPPER_PIN, HIGH);
     312:	84 e1       	ldi	r24, 0x14	; 20
     314:	61 e0       	ldi	r22, 0x01	; 1
     316:	0e 94 67 00 	call	0xce	; 0xce <_ZN16OrangutanDigital9setOutputEhh>
     31a:	82 e0       	ldi	r24, 0x02	; 2
     31c:	90 e0       	ldi	r25, 0x00	; 0
     31e:	0e 94 a6 06 	call	0xd4c	; 0xd4c <_ZN13OrangutanTime17delayMillisecondsEj>
  delay_ms(2);

  OrangutanDigital::setOutput(STEPPER_PIN, LOW);
     322:	84 e1       	ldi	r24, 0x14	; 20
     324:	60 e0       	ldi	r22, 0x00	; 0
     326:	0e 94 67 00 	call	0xce	; 0xce <_ZN16OrangutanDigital9setOutputEhh>
     32a:	82 e0       	ldi	r24, 0x02	; 2
     32c:	90 e0       	ldi	r25, 0x00	; 0
     32e:	0e 94 a6 06 	call	0xd4c	; 0xd4c <_ZN13OrangutanTime17delayMillisecondsEj>
  delay_ms(2);
  
  int pnls = NUM_STEPS * NUM_PANELS - stps/NUM_STEPS;
     332:	c8 01       	movw	r24, r16
     334:	60 e7       	ldi	r22, 0x70	; 112
     336:	7e ef       	ldi	r23, 0xFE	; 254
     338:	0e 94 13 09 	call	0x1226	; 0x1226 <__divmodhi4>
     33c:	eb 01       	movw	r28, r22
     33e:	c0 5a       	subi	r28, 0xA0	; 160
     340:	d6 4f       	sbci	r29, 0xF6	; 246

  if(pnls == 1 || pnls == 2 || pnls ==3) //for example
     342:	ce 01       	movw	r24, r28
     344:	01 97       	sbiw	r24, 0x01	; 1
     346:	03 97       	sbiw	r24, 0x03	; 3
     348:	80 f4       	brcc	.+32     	; 0x36a <_Z13step_backwardi+0x62>
  {
	if(OrangutanAnalog::read(sensor_ports[1]) == 1 || OrangutanAnalog::read(sensor_ports[2]) == 1 || OrangutanAnalog::read(sensor_ports[3]) == 1)
     34a:	80 91 02 01 	lds	r24, 0x0102
     34e:	0e 94 47 03 	call	0x68e	; 0x68e <_ZN15OrangutanAnalog4readEh>
     352:	01 97       	sbiw	r24, 0x01	; 1
     354:	51 f0       	breq	.+20     	; 0x36a <_Z13step_backwardi+0x62>
     356:	80 91 04 01 	lds	r24, 0x0104
     35a:	0e 94 47 03 	call	0x68e	; 0x68e <_ZN15OrangutanAnalog4readEh>
     35e:	01 97       	sbiw	r24, 0x01	; 1
     360:	21 f0       	breq	.+8      	; 0x36a <_Z13step_backwardi+0x62>
     362:	80 91 06 01 	lds	r24, 0x0106
     366:	0e 94 47 03 	call	0x68e	; 0x68e <_ZN15OrangutanAnalog4readEh>
      turn_on_brush(pnls);
    //else error code
  }
  else turn_off_brush(pnls);

  if(pnls == 4)
     36a:	24 97       	sbiw	r28, 0x04	; 4
     36c:	21 f4       	brne	.+8      	; 0x376 <_Z13step_backwardi+0x6e>
  {
    if(OrangutanAnalog::read(sensor_ports[4]) == 1)
     36e:	80 91 08 01 	lds	r24, 0x0108
     372:	0e 94 47 03 	call	0x68e	; 0x68e <_ZN15OrangutanAnalog4readEh>
    //else error code
  }
  else turn_off_razor();

  return 0;
}
     376:	80 e0       	ldi	r24, 0x00	; 0
     378:	90 e0       	ldi	r25, 0x00	; 0
     37a:	df 91       	pop	r29
     37c:	cf 91       	pop	r28
     37e:	1f 91       	pop	r17
     380:	0f 91       	pop	r16
     382:	08 95       	ret

00000384 <_Z12step_forwardi>:
}




int step_forward(int stps)
     384:	0f 93       	push	r16
     386:	1f 93       	push	r17
     388:	cf 93       	push	r28
     38a:	df 93       	push	r29
     38c:	8c 01       	movw	r16, r24
{
  //send pulse to step once
  OrangutanDigital::setOutput(STEPPER_PIN, HIGH);
     38e:	84 e1       	ldi	r24, 0x14	; 20
     390:	61 e0       	ldi	r22, 0x01	; 1
     392:	0e 94 67 00 	call	0xce	; 0xce <_ZN16OrangutanDigital9setOutputEhh>
     396:	82 e0       	ldi	r24, 0x02	; 2
     398:	90 e0       	ldi	r25, 0x00	; 0
     39a:	0e 94 a6 06 	call	0xd4c	; 0xd4c <_ZN13OrangutanTime17delayMillisecondsEj>
  delay_ms(2);

  OrangutanDigital::setOutput(STEPPER_PIN, LOW);
     39e:	84 e1       	ldi	r24, 0x14	; 20
     3a0:	60 e0       	ldi	r22, 0x00	; 0
     3a2:	0e 94 67 00 	call	0xce	; 0xce <_ZN16OrangutanDigital9setOutputEhh>
     3a6:	82 e0       	ldi	r24, 0x02	; 2
     3a8:	90 e0       	ldi	r25, 0x00	; 0
     3aa:	0e 94 a6 06 	call	0xd4c	; 0xd4c <_ZN13OrangutanTime17delayMillisecondsEj>
  delay_ms(2);

  int pnls = stps/NUM_STEPS;
     3ae:	c8 01       	movw	r24, r16
     3b0:	60 e9       	ldi	r22, 0x90	; 144
     3b2:	71 e0       	ldi	r23, 0x01	; 1
     3b4:	0e 94 13 09 	call	0x1226	; 0x1226 <__divmodhi4>
     3b8:	eb 01       	movw	r28, r22

  if(pnls == 1 || pnls == 2 || pnls ==3) //for example
     3ba:	cb 01       	movw	r24, r22
     3bc:	01 97       	sbiw	r24, 0x01	; 1
     3be:	03 97       	sbiw	r24, 0x03	; 3
     3c0:	80 f4       	brcc	.+32     	; 0x3e2 <_Z12step_forwardi+0x5e>
  {
	if(OrangutanAnalog::read(sensor_ports[1]) == 1 || OrangutanAnalog::read(sensor_ports[2]) == 1 || OrangutanAnalog::read(sensor_ports[3]) == 1)
     3c2:	80 91 02 01 	lds	r24, 0x0102
     3c6:	0e 94 47 03 	call	0x68e	; 0x68e <_ZN15OrangutanAnalog4readEh>
     3ca:	01 97       	sbiw	r24, 0x01	; 1
     3cc:	51 f0       	breq	.+20     	; 0x3e2 <_Z12step_forwardi+0x5e>
     3ce:	80 91 04 01 	lds	r24, 0x0104
     3d2:	0e 94 47 03 	call	0x68e	; 0x68e <_ZN15OrangutanAnalog4readEh>
     3d6:	01 97       	sbiw	r24, 0x01	; 1
     3d8:	21 f0       	breq	.+8      	; 0x3e2 <_Z12step_forwardi+0x5e>
     3da:	80 91 06 01 	lds	r24, 0x0106
     3de:	0e 94 47 03 	call	0x68e	; 0x68e <_ZN15OrangutanAnalog4readEh>
      turn_on_brush(pnls);
    //else error code
  }
  else turn_off_brush(pnls);

  if(pnls == 4)
     3e2:	24 97       	sbiw	r28, 0x04	; 4
     3e4:	21 f4       	brne	.+8      	; 0x3ee <_Z12step_forwardi+0x6a>
  {
    if(OrangutanAnalog::read(sensor_ports[4]) == 1)
     3e6:	80 91 08 01 	lds	r24, 0x0108
     3ea:	0e 94 47 03 	call	0x68e	; 0x68e <_ZN15OrangutanAnalog4readEh>
  }
  else turn_off_razor();
    

  return 0;
}
     3ee:	80 e0       	ldi	r24, 0x00	; 0
     3f0:	90 e0       	ldi	r25, 0x00	; 0
     3f2:	df 91       	pop	r29
     3f4:	cf 91       	pop	r28
     3f6:	1f 91       	pop	r17
     3f8:	0f 91       	pop	r16
     3fa:	08 95       	ret

000003fc <main>:
bool at_end(int s);
bool at_front(int s);


  
int main()   
     3fc:	cf 93       	push	r28
     3fe:	df 93       	push	r29
{
  int steps = 0;
  
  switch_to_forward();  
     400:	0e 94 e5 00 	call	0x1ca	; 0x1ca <_Z17switch_to_forwardv>


  load_plate();
     404:	0e 94 7b 01 	call	0x2f6	; 0x2f6 <_Z10load_platev>

  OrangutanPushbuttons::waitForButton(START_BUTTON); //the top button on the Orangutan
     408:	80 e2       	ldi	r24, 0x20	; 32
     40a:	0e 94 2c 06 	call	0xc58	; 0xc58 <_ZN20OrangutanPushbuttons13waitForButtonEh>
     40e:	c0 e0       	ldi	r28, 0x00	; 0
     410:	d0 e0       	ldi	r29, 0x00	; 0
     412:	0c c0       	rjmp	.+24     	; 0x42c <main+0x30>
  {
    step_forward(steps);
	steps++;
  }

  switch_to_backward();
     414:	0e 94 de 00 	call	0x1bc	; 0x1bc <_Z18switch_to_backwardv>
     418:	c0 e0       	ldi	r28, 0x00	; 0
     41a:	d0 e0       	ldi	r29, 0x00	; 0
     41c:	10 c0       	rjmp	.+32     	; 0x43e <main+0x42>
  {
    step_backward(steps);
	steps++;
  }

  unload_plate();
     41e:	0e 94 37 01 	call	0x26e	; 0x26e <_Z12unload_platev>

  return 0;
}  
     422:	80 e0       	ldi	r24, 0x00	; 0
     424:	90 e0       	ldi	r25, 0x00	; 0
     426:	df 91       	pop	r29
     428:	cf 91       	pop	r28
     42a:	08 95       	ret

  OrangutanPushbuttons::waitForButton(START_BUTTON); //the top button on the Orangutan

  while(!at_end(steps))
  {
    step_forward(steps);
     42c:	ce 01       	movw	r24, r28
     42e:	0e 94 c2 01 	call	0x384	; 0x384 <_Z12step_forwardi>
	steps++;
     432:	21 96       	adiw	r28, 0x01	; 1
}


bool at_end(int s)
{
  if(s == NUM_STEPS * NUM_PANELS)
     434:	89 e0       	ldi	r24, 0x09	; 9
     436:	c0 36       	cpi	r28, 0x60	; 96
     438:	d8 07       	cpc	r29, r24
     43a:	c1 f7       	brne	.-16     	; 0x42c <main+0x30>
     43c:	eb cf       	rjmp	.-42     	; 0x414 <main+0x18>
  switch_to_backward();
  steps = 0;

  while(!at_front(steps))
  {
    step_backward(steps);
     43e:	ce 01       	movw	r24, r28
     440:	0e 94 84 01 	call	0x308	; 0x308 <_Z13step_backwardi>
	steps++;
     444:	21 96       	adiw	r28, 0x01	; 1
  else return false;
}

bool at_front(int s)
{
  if(s == NUM_STEPS * NUM_PANELS)
     446:	89 e0       	ldi	r24, 0x09	; 9
     448:	c0 36       	cpi	r28, 0x60	; 96
     44a:	d8 07       	cpc	r29, r24
     44c:	c1 f7       	brne	.-16     	; 0x43e <main+0x42>
     44e:	e7 cf       	rjmp	.-50     	; 0x41e <main+0x22>

00000450 <_ZdlPv>:
  return malloc(size); 
} 

void operator delete(void * ptr) 
{ 
  free(ptr); 
     450:	0e 94 2c 0a 	call	0x1458	; 0x1458 <free>
} 
     454:	08 95       	ret

00000456 <_Znwj>:
void * operator new(size_t size); 
void operator delete(void * ptr); 

void * operator new(size_t size) 
{ 
  return malloc(size); 
     456:	0e 94 7f 09 	call	0x12fe	; 0x12fe <malloc>
} 
     45a:	08 95       	ret

0000045c <set_millivolt_calibration>:
     45c:	90 93 0d 01 	sts	0x010D, r25
     460:	80 93 0c 01 	sts	0x010C, r24
     464:	08 95       	ret

00000466 <_ZN15OrangutanAnalogC2Ev>:
     466:	08 95       	ret

00000468 <_ZN15OrangutanAnalogC1Ev>:
     468:	08 95       	ret

0000046a <_ZN15OrangutanAnalog16conversionResultEv>:
     46a:	ef 92       	push	r14
     46c:	ff 92       	push	r15
     46e:	0f 93       	push	r16
     470:	1f 93       	push	r17
     472:	cf 93       	push	r28
     474:	df 93       	push	r29
     476:	80 91 1c 01 	lds	r24, 0x011C
     47a:	88 23       	and	r24, r24
     47c:	09 f4       	brne	.+2      	; 0x480 <_ZN15OrangutanAnalog16conversionResultEv+0x16>
     47e:	55 c0       	rjmp	.+170    	; 0x52a <_ZN15OrangutanAnalog16conversionResultEv+0xc0>
     480:	80 91 1d 01 	lds	r24, 0x011D
     484:	90 91 1e 01 	lds	r25, 0x011E
     488:	20 91 7c 00 	lds	r18, 0x007C
     48c:	c0 91 0c 01 	lds	r28, 0x010C
     490:	d0 91 0d 01 	lds	r29, 0x010D
     494:	bc 01       	movw	r22, r24
     496:	80 e0       	ldi	r24, 0x00	; 0
     498:	90 e0       	ldi	r25, 0x00	; 0
     49a:	25 ff       	sbrs	r18, 5
     49c:	21 c0       	rjmp	.+66     	; 0x4e0 <_ZN15OrangutanAnalog16conversionResultEv+0x76>
     49e:	7e 01       	movw	r14, r28
     4a0:	f6 94       	lsr	r15
     4a2:	e7 94       	ror	r14
     4a4:	00 e0       	ldi	r16, 0x00	; 0
     4a6:	10 e0       	ldi	r17, 0x00	; 0
     4a8:	2f ef       	ldi	r18, 0xFF	; 255
     4aa:	30 e0       	ldi	r19, 0x00	; 0
     4ac:	40 e0       	ldi	r20, 0x00	; 0
     4ae:	50 e0       	ldi	r21, 0x00	; 0
     4b0:	0e 94 e0 08 	call	0x11c0	; 0x11c0 <__mulsi3>
     4b4:	e6 0e       	add	r14, r22
     4b6:	f7 1e       	adc	r15, r23
     4b8:	08 1f       	adc	r16, r24
     4ba:	19 1f       	adc	r17, r25
     4bc:	9e 01       	movw	r18, r28
     4be:	40 e0       	ldi	r20, 0x00	; 0
     4c0:	50 e0       	ldi	r21, 0x00	; 0
     4c2:	c8 01       	movw	r24, r16
     4c4:	b7 01       	movw	r22, r14
     4c6:	0e 94 26 09 	call	0x124c	; 0x124c <__udivmodsi4>
     4ca:	c9 01       	movw	r24, r18
     4cc:	da 01       	movw	r26, r20
     4ce:	8f 3f       	cpi	r24, 0xFF	; 255
     4d0:	91 05       	cpc	r25, r1
     4d2:	a1 05       	cpc	r26, r1
     4d4:	b1 05       	cpc	r27, r1
     4d6:	39 f1       	breq	.+78     	; 0x526 <_ZN15OrangutanAnalog16conversionResultEv+0xbc>
     4d8:	30 f1       	brcs	.+76     	; 0x526 <_ZN15OrangutanAnalog16conversionResultEv+0xbc>
     4da:	2f ef       	ldi	r18, 0xFF	; 255
     4dc:	30 e0       	ldi	r19, 0x00	; 0
     4de:	32 c0       	rjmp	.+100    	; 0x544 <_ZN15OrangutanAnalog16conversionResultEv+0xda>
     4e0:	7e 01       	movw	r14, r28
     4e2:	f6 94       	lsr	r15
     4e4:	e7 94       	ror	r14
     4e6:	00 e0       	ldi	r16, 0x00	; 0
     4e8:	10 e0       	ldi	r17, 0x00	; 0
     4ea:	2f ef       	ldi	r18, 0xFF	; 255
     4ec:	33 e0       	ldi	r19, 0x03	; 3
     4ee:	40 e0       	ldi	r20, 0x00	; 0
     4f0:	50 e0       	ldi	r21, 0x00	; 0
     4f2:	0e 94 e0 08 	call	0x11c0	; 0x11c0 <__mulsi3>
     4f6:	e6 0e       	add	r14, r22
     4f8:	f7 1e       	adc	r15, r23
     4fa:	08 1f       	adc	r16, r24
     4fc:	19 1f       	adc	r17, r25
     4fe:	9e 01       	movw	r18, r28
     500:	40 e0       	ldi	r20, 0x00	; 0
     502:	50 e0       	ldi	r21, 0x00	; 0
     504:	c8 01       	movw	r24, r16
     506:	b7 01       	movw	r22, r14
     508:	0e 94 26 09 	call	0x124c	; 0x124c <__udivmodsi4>
     50c:	c9 01       	movw	r24, r18
     50e:	da 01       	movw	r26, r20
     510:	80 30       	cpi	r24, 0x00	; 0
     512:	20 e0       	ldi	r18, 0x00	; 0
     514:	92 07       	cpc	r25, r18
     516:	21 e0       	ldi	r18, 0x01	; 1
     518:	a2 07       	cpc	r26, r18
     51a:	20 e0       	ldi	r18, 0x00	; 0
     51c:	b2 07       	cpc	r27, r18
     51e:	18 f0       	brcs	.+6      	; 0x526 <_ZN15OrangutanAnalog16conversionResultEv+0xbc>
     520:	2f ef       	ldi	r18, 0xFF	; 255
     522:	3f ef       	ldi	r19, 0xFF	; 255
     524:	0f c0       	rjmp	.+30     	; 0x544 <_ZN15OrangutanAnalog16conversionResultEv+0xda>
     526:	9c 01       	movw	r18, r24
     528:	0d c0       	rjmp	.+26     	; 0x544 <_ZN15OrangutanAnalog16conversionResultEv+0xda>
     52a:	80 91 7c 00 	lds	r24, 0x007C
     52e:	85 ff       	sbrs	r24, 5
     530:	05 c0       	rjmp	.+10     	; 0x53c <_ZN15OrangutanAnalog16conversionResultEv+0xd2>
     532:	80 91 79 00 	lds	r24, 0x0079
     536:	28 2f       	mov	r18, r24
     538:	30 e0       	ldi	r19, 0x00	; 0
     53a:	04 c0       	rjmp	.+8      	; 0x544 <_ZN15OrangutanAnalog16conversionResultEv+0xda>
     53c:	20 91 78 00 	lds	r18, 0x0078
     540:	30 91 79 00 	lds	r19, 0x0079
     544:	c9 01       	movw	r24, r18
     546:	cd b7       	in	r28, 0x3d	; 61
     548:	de b7       	in	r29, 0x3e	; 62
     54a:	e6 e0       	ldi	r30, 0x06	; 6
     54c:	0c 94 70 09 	jmp	0x12e0	; 0x12e0 <__epilogue_restores__+0x18>

00000550 <analog_conversion_result>:
     550:	0e 94 35 02 	call	0x46a	; 0x46a <_ZN15OrangutanAnalog16conversionResultEv>
     554:	08 95       	ret

00000556 <_ZN15OrangutanAnalog23setMillivoltCalibrationEj>:
     556:	90 93 0d 01 	sts	0x010D, r25
     55a:	80 93 0c 01 	sts	0x010C, r24
     55e:	08 95       	ret

00000560 <_ZN15OrangutanAnalog12toMillivoltsEj>:
     560:	a0 e0       	ldi	r26, 0x00	; 0
     562:	b0 e0       	ldi	r27, 0x00	; 0
     564:	20 91 0c 01 	lds	r18, 0x010C
     568:	30 91 0d 01 	lds	r19, 0x010D
     56c:	40 e0       	ldi	r20, 0x00	; 0
     56e:	50 e0       	ldi	r21, 0x00	; 0
     570:	bc 01       	movw	r22, r24
     572:	cd 01       	movw	r24, r26
     574:	0e 94 e0 08 	call	0x11c0	; 0x11c0 <__mulsi3>
     578:	9b 01       	movw	r18, r22
     57a:	ac 01       	movw	r20, r24
     57c:	80 91 7c 00 	lds	r24, 0x007C
     580:	85 ff       	sbrs	r24, 5
     582:	0b c0       	rjmp	.+22     	; 0x59a <_ZN15OrangutanAnalog12toMillivoltsEj+0x3a>
     584:	b9 01       	movw	r22, r18
     586:	ca 01       	movw	r24, r20
     588:	61 58       	subi	r22, 0x81	; 129
     58a:	7f 4f       	sbci	r23, 0xFF	; 255
     58c:	8f 4f       	sbci	r24, 0xFF	; 255
     58e:	9f 4f       	sbci	r25, 0xFF	; 255
     590:	2f ef       	ldi	r18, 0xFF	; 255
     592:	30 e0       	ldi	r19, 0x00	; 0
     594:	40 e0       	ldi	r20, 0x00	; 0
     596:	50 e0       	ldi	r21, 0x00	; 0
     598:	0a c0       	rjmp	.+20     	; 0x5ae <_ZN15OrangutanAnalog12toMillivoltsEj+0x4e>
     59a:	b9 01       	movw	r22, r18
     59c:	ca 01       	movw	r24, r20
     59e:	61 50       	subi	r22, 0x01	; 1
     5a0:	7e 4f       	sbci	r23, 0xFE	; 254
     5a2:	8f 4f       	sbci	r24, 0xFF	; 255
     5a4:	9f 4f       	sbci	r25, 0xFF	; 255
     5a6:	2f ef       	ldi	r18, 0xFF	; 255
     5a8:	33 e0       	ldi	r19, 0x03	; 3
     5aa:	40 e0       	ldi	r20, 0x00	; 0
     5ac:	50 e0       	ldi	r21, 0x00	; 0
     5ae:	0e 94 26 09 	call	0x124c	; 0x124c <__udivmodsi4>
     5b2:	c9 01       	movw	r24, r18
     5b4:	08 95       	ret

000005b6 <_ZN15OrangutanAnalog26conversionResultMillivoltsEv>:
     5b6:	80 91 1c 01 	lds	r24, 0x011C
     5ba:	88 23       	and	r24, r24
     5bc:	29 f0       	breq	.+10     	; 0x5c8 <_ZN15OrangutanAnalog26conversionResultMillivoltsEv+0x12>
     5be:	80 91 1d 01 	lds	r24, 0x011D
     5c2:	90 91 1e 01 	lds	r25, 0x011E
     5c6:	08 95       	ret
     5c8:	80 91 7c 00 	lds	r24, 0x007C
     5cc:	85 ff       	sbrs	r24, 5
     5ce:	06 c0       	rjmp	.+12     	; 0x5dc <_ZN15OrangutanAnalog26conversionResultMillivoltsEv+0x26>
     5d0:	80 91 79 00 	lds	r24, 0x0079
     5d4:	90 e0       	ldi	r25, 0x00	; 0
     5d6:	0e 94 b0 02 	call	0x560	; 0x560 <_ZN15OrangutanAnalog12toMillivoltsEj>
     5da:	08 95       	ret
     5dc:	80 91 78 00 	lds	r24, 0x0078
     5e0:	90 91 79 00 	lds	r25, 0x0079
     5e4:	0e 94 b0 02 	call	0x560	; 0x560 <_ZN15OrangutanAnalog12toMillivoltsEj>
     5e8:	08 95       	ret

000005ea <analog_conversion_result_millivolts>:
     5ea:	0e 94 db 02 	call	0x5b6	; 0x5b6 <_ZN15OrangutanAnalog26conversionResultMillivoltsEv>
     5ee:	08 95       	ret

000005f0 <to_millivolts>:
     5f0:	0e 94 b0 02 	call	0x560	; 0x560 <_ZN15OrangutanAnalog12toMillivoltsEj>
     5f4:	08 95       	ret

000005f6 <read_trimpot_millivolts>:
     5f6:	0e 94 bc 07 	call	0xf78	; 0xf78 <_ZN12OrangutanSVP20getTrimpotMillivoltsEv>
     5fa:	08 95       	ret

000005fc <_ZN15OrangutanAnalog15startConversionEhh>:
     5fc:	98 2f       	mov	r25, r24
     5fe:	80 32       	cpi	r24, 0x20	; 32
     600:	00 f1       	brcs	.+64     	; 0x642 <_ZN15OrangutanAnalog15startConversionEhh+0x46>
     602:	81 e0       	ldi	r24, 0x01	; 1
     604:	80 93 1c 01 	sts	0x011C, r24
     608:	90 38       	cpi	r25, 0x80	; 128
     60a:	19 f4       	brne	.+6      	; 0x612 <_ZN15OrangutanAnalog15startConversionEhh+0x16>
     60c:	0e 94 bc 07 	call	0xf78	; 0xf78 <_ZN12OrangutanSVP20getTrimpotMillivoltsEv>
     610:	13 c0       	rjmp	.+38     	; 0x638 <_ZN15OrangutanAnalog15startConversionEhh+0x3c>
     612:	91 38       	cpi	r25, 0x81	; 129
     614:	19 f4       	brne	.+6      	; 0x61c <_ZN15OrangutanAnalog15startConversionEhh+0x20>
     616:	0e 94 ae 07 	call	0xf5c	; 0xf5c <_ZN12OrangutanSVP21getChannelAMillivoltsEv>
     61a:	0e c0       	rjmp	.+28     	; 0x638 <_ZN15OrangutanAnalog15startConversionEhh+0x3c>
     61c:	92 38       	cpi	r25, 0x82	; 130
     61e:	19 f4       	brne	.+6      	; 0x626 <_ZN15OrangutanAnalog15startConversionEhh+0x2a>
     620:	0e 94 a7 07 	call	0xf4e	; 0xf4e <_ZN12OrangutanSVP21getChannelBMillivoltsEv>
     624:	09 c0       	rjmp	.+18     	; 0x638 <_ZN15OrangutanAnalog15startConversionEhh+0x3c>
     626:	93 38       	cpi	r25, 0x83	; 131
     628:	19 f4       	brne	.+6      	; 0x630 <_ZN15OrangutanAnalog15startConversionEhh+0x34>
     62a:	0e 94 a0 07 	call	0xf40	; 0xf40 <_ZN12OrangutanSVP21getChannelCMillivoltsEv>
     62e:	04 c0       	rjmp	.+8      	; 0x638 <_ZN15OrangutanAnalog15startConversionEhh+0x3c>
     630:	94 38       	cpi	r25, 0x84	; 132
     632:	f9 f4       	brne	.+62     	; 0x672 <_ZN15OrangutanAnalog15startConversionEhh+0x76>
     634:	0e 94 99 07 	call	0xf32	; 0xf32 <_ZN12OrangutanSVP21getChannelDMillivoltsEv>
     638:	90 93 1e 01 	sts	0x011E, r25
     63c:	80 93 1d 01 	sts	0x011D, r24
     640:	08 95       	ret
     642:	10 92 1c 01 	sts	0x011C, r1
     646:	87 e8       	ldi	r24, 0x87	; 135
     648:	80 93 7a 00 	sts	0x007A, r24
     64c:	80 91 7c 00 	lds	r24, 0x007C
     650:	28 2f       	mov	r18, r24
     652:	20 64       	ori	r18, 0x40	; 64
     654:	66 23       	and	r22, r22
     656:	11 f0       	breq	.+4      	; 0x65c <_ZN15OrangutanAnalog15startConversionEhh+0x60>
     658:	80 6c       	ori	r24, 0xC0	; 192
     65a:	02 c0       	rjmp	.+4      	; 0x660 <_ZN15OrangutanAnalog15startConversionEhh+0x64>
     65c:	82 2f       	mov	r24, r18
     65e:	8f 77       	andi	r24, 0x7F	; 127
     660:	80 7e       	andi	r24, 0xE0	; 224
     662:	89 2b       	or	r24, r25
     664:	80 93 7c 00 	sts	0x007C, r24
     668:	80 91 7a 00 	lds	r24, 0x007A
     66c:	80 64       	ori	r24, 0x40	; 64
     66e:	80 93 7a 00 	sts	0x007A, r24
     672:	08 95       	ret

00000674 <_ZN15OrangutanAnalog14readMillivoltsEh>:
     674:	60 e0       	ldi	r22, 0x00	; 0
     676:	0e 94 fe 02 	call	0x5fc	; 0x5fc <_ZN15OrangutanAnalog15startConversionEhh>
     67a:	80 91 7a 00 	lds	r24, 0x007A
     67e:	86 fd       	sbrc	r24, 6
     680:	fc cf       	rjmp	.-8      	; 0x67a <_ZN15OrangutanAnalog14readMillivoltsEh+0x6>
     682:	0e 94 db 02 	call	0x5b6	; 0x5b6 <_ZN15OrangutanAnalog26conversionResultMillivoltsEv>
     686:	08 95       	ret

00000688 <analog_read_millivolts>:
     688:	0e 94 3a 03 	call	0x674	; 0x674 <_ZN15OrangutanAnalog14readMillivoltsEh>
     68c:	08 95       	ret

0000068e <_ZN15OrangutanAnalog4readEh>:
     68e:	60 e0       	ldi	r22, 0x00	; 0
     690:	0e 94 fe 02 	call	0x5fc	; 0x5fc <_ZN15OrangutanAnalog15startConversionEhh>
     694:	80 91 7a 00 	lds	r24, 0x007A
     698:	86 fd       	sbrc	r24, 6
     69a:	fc cf       	rjmp	.-8      	; 0x694 <_ZN15OrangutanAnalog4readEh+0x6>
     69c:	0e 94 35 02 	call	0x46a	; 0x46a <_ZN15OrangutanAnalog16conversionResultEv>
     6a0:	08 95       	ret

000006a2 <analog_read>:
     6a2:	0e 94 47 03 	call	0x68e	; 0x68e <_ZN15OrangutanAnalog4readEh>
     6a6:	08 95       	ret

000006a8 <_ZN15OrangutanAnalog11readAverageEhj>:
     6a8:	a0 e0       	ldi	r26, 0x00	; 0
     6aa:	b0 e0       	ldi	r27, 0x00	; 0
     6ac:	ea e5       	ldi	r30, 0x5A	; 90
     6ae:	f3 e0       	ldi	r31, 0x03	; 3
     6b0:	0c 94 52 09 	jmp	0x12a4	; 0x12a4 <__prologue_saves__+0x14>
     6b4:	6b 01       	movw	r12, r22
     6b6:	80 32       	cpi	r24, 0x20	; 32
     6b8:	20 f0       	brcs	.+8      	; 0x6c2 <_ZN15OrangutanAnalog11readAverageEhj+0x1a>
     6ba:	0e 94 47 03 	call	0x68e	; 0x68e <_ZN15OrangutanAnalog4readEh>
     6be:	9c 01       	movw	r18, r24
     6c0:	3a c0       	rjmp	.+116    	; 0x736 <_ZN15OrangutanAnalog11readAverageEhj+0x8e>
     6c2:	60 e0       	ldi	r22, 0x00	; 0
     6c4:	0e 94 fe 02 	call	0x5fc	; 0x5fc <_ZN15OrangutanAnalog15startConversionEhh>
     6c8:	80 91 7a 00 	lds	r24, 0x007A
     6cc:	86 fd       	sbrc	r24, 6
     6ce:	fc cf       	rjmp	.-8      	; 0x6c8 <_ZN15OrangutanAnalog11readAverageEhj+0x20>
     6d0:	e6 01       	movw	r28, r12
     6d2:	ee 24       	eor	r14, r14
     6d4:	ff 24       	eor	r15, r15
     6d6:	87 01       	movw	r16, r14
     6d8:	80 91 7a 00 	lds	r24, 0x007A
     6dc:	80 64       	ori	r24, 0x40	; 64
     6de:	80 93 7a 00 	sts	0x007A, r24
     6e2:	80 91 7a 00 	lds	r24, 0x007A
     6e6:	86 fd       	sbrc	r24, 6
     6e8:	fc cf       	rjmp	.-8      	; 0x6e2 <_ZN15OrangutanAnalog11readAverageEhj+0x3a>
     6ea:	0e 94 35 02 	call	0x46a	; 0x46a <_ZN15OrangutanAnalog16conversionResultEv>
     6ee:	a0 e0       	ldi	r26, 0x00	; 0
     6f0:	b0 e0       	ldi	r27, 0x00	; 0
     6f2:	e8 0e       	add	r14, r24
     6f4:	f9 1e       	adc	r15, r25
     6f6:	0a 1f       	adc	r16, r26
     6f8:	1b 1f       	adc	r17, r27
     6fa:	21 97       	sbiw	r28, 0x01	; 1
     6fc:	69 f7       	brne	.-38     	; 0x6d8 <_ZN15OrangutanAnalog11readAverageEhj+0x30>
     6fe:	c6 01       	movw	r24, r12
     700:	96 95       	lsr	r25
     702:	87 95       	ror	r24
     704:	20 e4       	ldi	r18, 0x40	; 64
     706:	c2 16       	cp	r12, r18
     708:	d1 04       	cpc	r13, r1
     70a:	40 f4       	brcc	.+16     	; 0x71c <_ZN15OrangutanAnalog11readAverageEhj+0x74>
     70c:	8e 0d       	add	r24, r14
     70e:	9f 1d       	adc	r25, r15
     710:	6c 2d       	mov	r22, r12
     712:	70 e0       	ldi	r23, 0x00	; 0
     714:	0e 94 ff 08 	call	0x11fe	; 0x11fe <__udivmodhi4>
     718:	9b 01       	movw	r18, r22
     71a:	0d c0       	rjmp	.+26     	; 0x736 <_ZN15OrangutanAnalog11readAverageEhj+0x8e>
     71c:	a0 e0       	ldi	r26, 0x00	; 0
     71e:	b0 e0       	ldi	r27, 0x00	; 0
     720:	e8 0e       	add	r14, r24
     722:	f9 1e       	adc	r15, r25
     724:	0a 1f       	adc	r16, r26
     726:	1b 1f       	adc	r17, r27
     728:	96 01       	movw	r18, r12
     72a:	40 e0       	ldi	r20, 0x00	; 0
     72c:	50 e0       	ldi	r21, 0x00	; 0
     72e:	c8 01       	movw	r24, r16
     730:	b7 01       	movw	r22, r14
     732:	0e 94 26 09 	call	0x124c	; 0x124c <__udivmodsi4>
     736:	c9 01       	movw	r24, r18
     738:	cd b7       	in	r28, 0x3d	; 61
     73a:	de b7       	in	r29, 0x3e	; 62
     73c:	e8 e0       	ldi	r30, 0x08	; 8
     73e:	0c 94 6e 09 	jmp	0x12dc	; 0x12dc <__epilogue_restores__+0x14>

00000742 <_ZN15OrangutanAnalog17readVCCMillivoltsEv>:
     742:	1f 93       	push	r17
     744:	10 91 7c 00 	lds	r17, 0x007C
     748:	80 91 7c 00 	lds	r24, 0x007C
     74c:	8f 7d       	andi	r24, 0xDF	; 223
     74e:	80 93 7c 00 	sts	0x007C, r24
     752:	8e e1       	ldi	r24, 0x1E	; 30
     754:	64 e1       	ldi	r22, 0x14	; 20
     756:	70 e0       	ldi	r23, 0x00	; 0
     758:	0e 94 54 03 	call	0x6a8	; 0x6a8 <_ZN15OrangutanAnalog11readAverageEhj>
     75c:	8e e1       	ldi	r24, 0x1E	; 30
     75e:	64 e1       	ldi	r22, 0x14	; 20
     760:	70 e0       	ldi	r23, 0x00	; 0
     762:	0e 94 54 03 	call	0x6a8	; 0x6a8 <_ZN15OrangutanAnalog11readAverageEhj>
     766:	9c 01       	movw	r18, r24
     768:	15 fd       	sbrc	r17, 5
     76a:	04 c0       	rjmp	.+8      	; 0x774 <_ZN15OrangutanAnalog17readVCCMillivoltsEv+0x32>
     76c:	80 91 7c 00 	lds	r24, 0x007C
     770:	8f 7d       	andi	r24, 0xDF	; 223
     772:	03 c0       	rjmp	.+6      	; 0x77a <_ZN15OrangutanAnalog17readVCCMillivoltsEv+0x38>
     774:	80 91 7c 00 	lds	r24, 0x007C
     778:	80 62       	ori	r24, 0x20	; 32
     77a:	80 93 7c 00 	sts	0x007C, r24
     77e:	b9 01       	movw	r22, r18
     780:	76 95       	lsr	r23
     782:	67 95       	ror	r22
     784:	80 e0       	ldi	r24, 0x00	; 0
     786:	90 e0       	ldi	r25, 0x00	; 0
     788:	6c 54       	subi	r22, 0x4C	; 76
     78a:	74 4d       	sbci	r23, 0xD4	; 212
     78c:	8e 4e       	sbci	r24, 0xEE	; 238
     78e:	9f 4f       	sbci	r25, 0xFF	; 255
     790:	40 e0       	ldi	r20, 0x00	; 0
     792:	50 e0       	ldi	r21, 0x00	; 0
     794:	0e 94 26 09 	call	0x124c	; 0x124c <__udivmodsi4>
     798:	c9 01       	movw	r24, r18
     79a:	1f 91       	pop	r17
     79c:	08 95       	ret

0000079e <read_vcc_millivolts>:
     79e:	0e 94 a1 03 	call	0x742	; 0x742 <_ZN15OrangutanAnalog17readVCCMillivoltsEv>
     7a2:	08 95       	ret

000007a4 <read_trimpot>:
     7a4:	80 e8       	ldi	r24, 0x80	; 128
     7a6:	64 e1       	ldi	r22, 0x14	; 20
     7a8:	70 e0       	ldi	r23, 0x00	; 0
     7aa:	0e 94 54 03 	call	0x6a8	; 0x6a8 <_ZN15OrangutanAnalog11readAverageEhj>
     7ae:	08 95       	ret

000007b0 <analog_read_average_millivolts>:
     7b0:	80 32       	cpi	r24, 0x20	; 32
     7b2:	18 f0       	brcs	.+6      	; 0x7ba <analog_read_average_millivolts+0xa>
     7b4:	0e 94 3a 03 	call	0x674	; 0x674 <_ZN15OrangutanAnalog14readMillivoltsEh>
     7b8:	08 95       	ret
     7ba:	0e 94 54 03 	call	0x6a8	; 0x6a8 <_ZN15OrangutanAnalog11readAverageEhj>
     7be:	0e 94 b0 02 	call	0x560	; 0x560 <_ZN15OrangutanAnalog12toMillivoltsEj>
     7c2:	08 95       	ret

000007c4 <analog_read_average>:
     7c4:	0e 94 54 03 	call	0x6a8	; 0x6a8 <_ZN15OrangutanAnalog11readAverageEhj>
     7c8:	08 95       	ret

000007ca <start_analog_conversion>:
     7ca:	60 e0       	ldi	r22, 0x00	; 0
     7cc:	0e 94 fe 02 	call	0x5fc	; 0x5fc <_ZN15OrangutanAnalog15startConversionEhh>
     7d0:	08 95       	ret

000007d2 <read_battery_millivolts_svp>:
     7d2:	0e 94 b5 07 	call	0xf6a	; 0xf6a <_ZN12OrangutanSVP20getBatteryMillivoltsEv>
     7d6:	08 95       	ret

000007d8 <_ZN20OrangutanPushbuttonsC2Ev>:
     7d8:	08 95       	ret

000007da <_ZN20OrangutanPushbuttonsC1Ev>:
     7da:	08 95       	ret

000007dc <button_is_pressed>:
     7dc:	28 2f       	mov	r18, r24
     7de:	80 91 1f 01 	lds	r24, 0x011F
     7e2:	88 23       	and	r24, r24
     7e4:	91 f4       	brne	.+36     	; 0x80a <button_is_pressed+0x2e>
     7e6:	81 e0       	ldi	r24, 0x01	; 1
     7e8:	80 93 1f 01 	sts	0x011F, r24
     7ec:	87 b1       	in	r24, 0x07	; 7
     7ee:	83 7d       	andi	r24, 0xD3	; 211
     7f0:	87 b9       	out	0x07, r24	; 7
     7f2:	88 b1       	in	r24, 0x08	; 8
     7f4:	8c 62       	ori	r24, 0x2C	; 44
     7f6:	88 b9       	out	0x08, r24	; 8
     7f8:	85 e0       	ldi	r24, 0x05	; 5
     7fa:	90 e0       	ldi	r25, 0x00	; 0
     7fc:	6f 93       	push	r22
     7fe:	64 e0       	ldi	r22, 0x04	; 4
     800:	6a 95       	dec	r22
     802:	f1 f7       	brne	.-4      	; 0x800 <button_is_pressed+0x24>
     804:	6f 91       	pop	r22
     806:	01 97       	sbiw	r24, 0x01	; 1
     808:	c9 f7       	brne	.-14     	; 0x7fc <button_is_pressed+0x20>
     80a:	86 b1       	in	r24, 0x06	; 6
     80c:	80 95       	com	r24
     80e:	82 23       	and	r24, r18
     810:	08 95       	ret

00000812 <_ZN20OrangutanPushbuttons4initEv>:
     812:	80 91 1f 01 	lds	r24, 0x011F
     816:	88 23       	and	r24, r24
     818:	91 f4       	brne	.+36     	; 0x83e <_ZN20OrangutanPushbuttons4initEv+0x2c>
     81a:	81 e0       	ldi	r24, 0x01	; 1
     81c:	80 93 1f 01 	sts	0x011F, r24
     820:	87 b1       	in	r24, 0x07	; 7
     822:	83 7d       	andi	r24, 0xD3	; 211
     824:	87 b9       	out	0x07, r24	; 7
     826:	88 b1       	in	r24, 0x08	; 8
     828:	8c 62       	ori	r24, 0x2C	; 44
     82a:	88 b9       	out	0x08, r24	; 8
     82c:	85 e0       	ldi	r24, 0x05	; 5
     82e:	90 e0       	ldi	r25, 0x00	; 0
     830:	6f 93       	push	r22
     832:	64 e0       	ldi	r22, 0x04	; 4
     834:	6a 95       	dec	r22
     836:	f1 f7       	brne	.-4      	; 0x834 <_ZN20OrangutanPushbuttons4initEv+0x22>
     838:	6f 91       	pop	r22
     83a:	01 97       	sbiw	r24, 0x01	; 1
     83c:	c9 f7       	brne	.-14     	; 0x830 <_ZN20OrangutanPushbuttons4initEv+0x1e>
     83e:	08 95       	ret

00000840 <_ZN20OrangutanPushbuttons5init2Ev>:
     840:	87 b1       	in	r24, 0x07	; 7
     842:	83 7d       	andi	r24, 0xD3	; 211
     844:	87 b9       	out	0x07, r24	; 7
     846:	88 b1       	in	r24, 0x08	; 8
     848:	8c 62       	ori	r24, 0x2C	; 44
     84a:	88 b9       	out	0x08, r24	; 8
     84c:	85 e0       	ldi	r24, 0x05	; 5
     84e:	90 e0       	ldi	r25, 0x00	; 0
     850:	6f 93       	push	r22
     852:	64 e0       	ldi	r22, 0x04	; 4
     854:	6a 95       	dec	r22
     856:	f1 f7       	brne	.-4      	; 0x854 <_ZN20OrangutanPushbuttons5init2Ev+0x14>
     858:	6f 91       	pop	r22
     85a:	01 97       	sbiw	r24, 0x01	; 1
     85c:	c9 f7       	brne	.-14     	; 0x850 <_ZN20OrangutanPushbuttons5init2Ev+0x10>
     85e:	08 95       	ret

00000860 <_ZN20OrangutanPushbuttons9isPressedEh>:
     860:	28 2f       	mov	r18, r24
     862:	80 91 1f 01 	lds	r24, 0x011F
     866:	88 23       	and	r24, r24
     868:	91 f4       	brne	.+36     	; 0x88e <_ZN20OrangutanPushbuttons9isPressedEh+0x2e>
     86a:	81 e0       	ldi	r24, 0x01	; 1
     86c:	80 93 1f 01 	sts	0x011F, r24
     870:	87 b1       	in	r24, 0x07	; 7
     872:	83 7d       	andi	r24, 0xD3	; 211
     874:	87 b9       	out	0x07, r24	; 7
     876:	88 b1       	in	r24, 0x08	; 8
     878:	8c 62       	ori	r24, 0x2C	; 44
     87a:	88 b9       	out	0x08, r24	; 8
     87c:	85 e0       	ldi	r24, 0x05	; 5
     87e:	90 e0       	ldi	r25, 0x00	; 0
     880:	6f 93       	push	r22
     882:	64 e0       	ldi	r22, 0x04	; 4
     884:	6a 95       	dec	r22
     886:	f1 f7       	brne	.-4      	; 0x884 <_ZN20OrangutanPushbuttons9isPressedEh+0x24>
     888:	6f 91       	pop	r22
     88a:	01 97       	sbiw	r24, 0x01	; 1
     88c:	c9 f7       	brne	.-14     	; 0x880 <_ZN20OrangutanPushbuttons9isPressedEh+0x20>
     88e:	86 b1       	in	r24, 0x06	; 6
     890:	80 95       	com	r24
     892:	82 23       	and	r24, r18
     894:	08 95       	ret

00000896 <_ZN20OrangutanPushbuttons25getSingleDebouncedReleaseEh>:
     896:	0f 93       	push	r16
     898:	1f 93       	push	r17
     89a:	08 2f       	mov	r16, r24
     89c:	16 b1       	in	r17, 0x06	; 6
     89e:	0e 94 d7 06 	call	0xdae	; 0xdae <_ZN13OrangutanTime2msEv>
     8a2:	ab 01       	movw	r20, r22
     8a4:	bc 01       	movw	r22, r24
     8a6:	80 91 1f 01 	lds	r24, 0x011F
     8aa:	88 23       	and	r24, r24
     8ac:	91 f4       	brne	.+36     	; 0x8d2 <_ZN20OrangutanPushbuttons25getSingleDebouncedReleaseEh+0x3c>
     8ae:	81 e0       	ldi	r24, 0x01	; 1
     8b0:	80 93 1f 01 	sts	0x011F, r24
     8b4:	87 b1       	in	r24, 0x07	; 7
     8b6:	83 7d       	andi	r24, 0xD3	; 211
     8b8:	87 b9       	out	0x07, r24	; 7
     8ba:	88 b1       	in	r24, 0x08	; 8
     8bc:	8c 62       	ori	r24, 0x2C	; 44
     8be:	88 b9       	out	0x08, r24	; 8
     8c0:	85 e0       	ldi	r24, 0x05	; 5
     8c2:	90 e0       	ldi	r25, 0x00	; 0
     8c4:	6f 93       	push	r22
     8c6:	64 e0       	ldi	r22, 0x04	; 4
     8c8:	6a 95       	dec	r22
     8ca:	f1 f7       	brne	.-4      	; 0x8c8 <_ZN20OrangutanPushbuttons25getSingleDebouncedReleaseEh+0x32>
     8cc:	6f 91       	pop	r22
     8ce:	01 97       	sbiw	r24, 0x01	; 1
     8d0:	c9 f7       	brne	.-14     	; 0x8c4 <_ZN20OrangutanPushbuttons25getSingleDebouncedReleaseEh+0x2e>
     8d2:	80 91 25 01 	lds	r24, 0x0125
     8d6:	81 30       	cpi	r24, 0x01	; 1
     8d8:	11 f1       	breq	.+68     	; 0x91e <_ZN20OrangutanPushbuttons25getSingleDebouncedReleaseEh+0x88>
     8da:	81 30       	cpi	r24, 0x01	; 1
     8dc:	38 f0       	brcs	.+14     	; 0x8ec <_ZN20OrangutanPushbuttons25getSingleDebouncedReleaseEh+0x56>
     8de:	82 30       	cpi	r24, 0x02	; 2
     8e0:	09 f4       	brne	.+2      	; 0x8e4 <_ZN20OrangutanPushbuttons25getSingleDebouncedReleaseEh+0x4e>
     8e2:	43 c0       	rjmp	.+134    	; 0x96a <_ZN20OrangutanPushbuttons25getSingleDebouncedReleaseEh+0xd4>
     8e4:	83 30       	cpi	r24, 0x03	; 3
     8e6:	09 f0       	breq	.+2      	; 0x8ea <_ZN20OrangutanPushbuttons25getSingleDebouncedReleaseEh+0x54>
     8e8:	89 c0       	rjmp	.+274    	; 0x9fc <_ZN20OrangutanPushbuttons25getSingleDebouncedReleaseEh+0x166>
     8ea:	65 c0       	rjmp	.+202    	; 0x9b6 <_ZN20OrangutanPushbuttons25getSingleDebouncedReleaseEh+0x120>
     8ec:	20 2f       	mov	r18, r16
     8ee:	30 e0       	ldi	r19, 0x00	; 0
     8f0:	81 2f       	mov	r24, r17
     8f2:	90 e0       	ldi	r25, 0x00	; 0
     8f4:	80 95       	com	r24
     8f6:	90 95       	com	r25
     8f8:	28 23       	and	r18, r24
     8fa:	39 23       	and	r19, r25
     8fc:	23 2b       	or	r18, r19
     8fe:	09 f4       	brne	.+2      	; 0x902 <_ZN20OrangutanPushbuttons25getSingleDebouncedReleaseEh+0x6c>
     900:	7d c0       	rjmp	.+250    	; 0x9fc <_ZN20OrangutanPushbuttons25getSingleDebouncedReleaseEh+0x166>
     902:	10 95       	com	r17
     904:	10 23       	and	r17, r16
     906:	10 93 20 01 	sts	0x0120, r17
     90a:	40 93 21 01 	sts	0x0121, r20
     90e:	50 93 22 01 	sts	0x0122, r21
     912:	60 93 23 01 	sts	0x0123, r22
     916:	70 93 24 01 	sts	0x0124, r23
     91a:	81 e0       	ldi	r24, 0x01	; 1
     91c:	6d c0       	rjmp	.+218    	; 0x9f8 <_ZN20OrangutanPushbuttons25getSingleDebouncedReleaseEh+0x162>
     91e:	80 91 21 01 	lds	r24, 0x0121
     922:	90 91 22 01 	lds	r25, 0x0122
     926:	a0 91 23 01 	lds	r26, 0x0123
     92a:	b0 91 24 01 	lds	r27, 0x0124
     92e:	48 1b       	sub	r20, r24
     930:	59 0b       	sbc	r21, r25
     932:	6a 0b       	sbc	r22, r26
     934:	7b 0b       	sbc	r23, r27
     936:	4f 30       	cpi	r20, 0x0F	; 15
     938:	51 05       	cpc	r21, r1
     93a:	61 05       	cpc	r22, r1
     93c:	71 05       	cpc	r23, r1
     93e:	08 f4       	brcc	.+2      	; 0x942 <_ZN20OrangutanPushbuttons25getSingleDebouncedReleaseEh+0xac>
     940:	5d c0       	rjmp	.+186    	; 0x9fc <_ZN20OrangutanPushbuttons25getSingleDebouncedReleaseEh+0x166>
     942:	40 91 20 01 	lds	r20, 0x0120
     946:	81 2f       	mov	r24, r17
     948:	90 e0       	ldi	r25, 0x00	; 0
     94a:	80 95       	com	r24
     94c:	90 95       	com	r25
     94e:	24 2f       	mov	r18, r20
     950:	30 e0       	ldi	r19, 0x00	; 0
     952:	82 23       	and	r24, r18
     954:	93 23       	and	r25, r19
     956:	89 2b       	or	r24, r25
     958:	59 f1       	breq	.+86     	; 0x9b0 <_ZN20OrangutanPushbuttons25getSingleDebouncedReleaseEh+0x11a>
     95a:	82 e0       	ldi	r24, 0x02	; 2
     95c:	80 93 25 01 	sts	0x0125, r24
     960:	10 95       	com	r17
     962:	14 23       	and	r17, r20
     964:	10 93 20 01 	sts	0x0120, r17
     968:	49 c0       	rjmp	.+146    	; 0x9fc <_ZN20OrangutanPushbuttons25getSingleDebouncedReleaseEh+0x166>
     96a:	e0 91 20 01 	lds	r30, 0x0120
     96e:	ae 2f       	mov	r26, r30
     970:	b0 e0       	ldi	r27, 0x00	; 0
     972:	21 2f       	mov	r18, r17
     974:	30 e0       	ldi	r19, 0x00	; 0
     976:	cd 01       	movw	r24, r26
     978:	82 23       	and	r24, r18
     97a:	93 23       	and	r25, r19
     97c:	89 2b       	or	r24, r25
     97e:	79 f0       	breq	.+30     	; 0x99e <_ZN20OrangutanPushbuttons25getSingleDebouncedReleaseEh+0x108>
     980:	83 e0       	ldi	r24, 0x03	; 3
     982:	80 93 25 01 	sts	0x0125, r24
     986:	e1 23       	and	r30, r17
     988:	e0 93 20 01 	sts	0x0120, r30
     98c:	40 93 21 01 	sts	0x0121, r20
     990:	50 93 22 01 	sts	0x0122, r21
     994:	60 93 23 01 	sts	0x0123, r22
     998:	70 93 24 01 	sts	0x0124, r23
     99c:	2f c0       	rjmp	.+94     	; 0x9fc <_ZN20OrangutanPushbuttons25getSingleDebouncedReleaseEh+0x166>
     99e:	80 2f       	mov	r24, r16
     9a0:	90 e0       	ldi	r25, 0x00	; 0
     9a2:	20 95       	com	r18
     9a4:	30 95       	com	r19
     9a6:	82 23       	and	r24, r18
     9a8:	93 23       	and	r25, r19
     9aa:	a8 17       	cp	r26, r24
     9ac:	b9 07       	cpc	r27, r25
     9ae:	31 f1       	breq	.+76     	; 0x9fc <_ZN20OrangutanPushbuttons25getSingleDebouncedReleaseEh+0x166>
     9b0:	10 92 25 01 	sts	0x0125, r1
     9b4:	23 c0       	rjmp	.+70     	; 0x9fc <_ZN20OrangutanPushbuttons25getSingleDebouncedReleaseEh+0x166>
     9b6:	80 91 21 01 	lds	r24, 0x0121
     9ba:	90 91 22 01 	lds	r25, 0x0122
     9be:	a0 91 23 01 	lds	r26, 0x0123
     9c2:	b0 91 24 01 	lds	r27, 0x0124
     9c6:	48 1b       	sub	r20, r24
     9c8:	59 0b       	sbc	r21, r25
     9ca:	6a 0b       	sbc	r22, r26
     9cc:	7b 0b       	sbc	r23, r27
     9ce:	4f 30       	cpi	r20, 0x0F	; 15
     9d0:	51 05       	cpc	r21, r1
     9d2:	61 05       	cpc	r22, r1
     9d4:	71 05       	cpc	r23, r1
     9d6:	90 f0       	brcs	.+36     	; 0x9fc <_ZN20OrangutanPushbuttons25getSingleDebouncedReleaseEh+0x166>
     9d8:	40 91 20 01 	lds	r20, 0x0120
     9dc:	84 2f       	mov	r24, r20
     9de:	90 e0       	ldi	r25, 0x00	; 0
     9e0:	21 2f       	mov	r18, r17
     9e2:	30 e0       	ldi	r19, 0x00	; 0
     9e4:	82 23       	and	r24, r18
     9e6:	93 23       	and	r25, r19
     9e8:	89 2b       	or	r24, r25
     9ea:	29 f0       	breq	.+10     	; 0x9f6 <_ZN20OrangutanPushbuttons25getSingleDebouncedReleaseEh+0x160>
     9ec:	10 92 25 01 	sts	0x0125, r1
     9f0:	84 2f       	mov	r24, r20
     9f2:	81 23       	and	r24, r17
     9f4:	04 c0       	rjmp	.+8      	; 0x9fe <_ZN20OrangutanPushbuttons25getSingleDebouncedReleaseEh+0x168>
     9f6:	82 e0       	ldi	r24, 0x02	; 2
     9f8:	80 93 25 01 	sts	0x0125, r24
     9fc:	80 e0       	ldi	r24, 0x00	; 0
     9fe:	1f 91       	pop	r17
     a00:	0f 91       	pop	r16
     a02:	08 95       	ret

00000a04 <get_single_debounced_button_release>:
     a04:	0e 94 4b 04 	call	0x896	; 0x896 <_ZN20OrangutanPushbuttons25getSingleDebouncedReleaseEh>
     a08:	08 95       	ret

00000a0a <_ZN20OrangutanPushbuttons23getSingleDebouncedPressEh>:
     a0a:	0f 93       	push	r16
     a0c:	1f 93       	push	r17
     a0e:	08 2f       	mov	r16, r24
     a10:	16 b1       	in	r17, 0x06	; 6
     a12:	10 95       	com	r17
     a14:	0e 94 d7 06 	call	0xdae	; 0xdae <_ZN13OrangutanTime2msEv>
     a18:	ab 01       	movw	r20, r22
     a1a:	bc 01       	movw	r22, r24
     a1c:	80 91 1f 01 	lds	r24, 0x011F
     a20:	88 23       	and	r24, r24
     a22:	91 f4       	brne	.+36     	; 0xa48 <_ZN20OrangutanPushbuttons23getSingleDebouncedPressEh+0x3e>
     a24:	81 e0       	ldi	r24, 0x01	; 1
     a26:	80 93 1f 01 	sts	0x011F, r24
     a2a:	87 b1       	in	r24, 0x07	; 7
     a2c:	83 7d       	andi	r24, 0xD3	; 211
     a2e:	87 b9       	out	0x07, r24	; 7
     a30:	88 b1       	in	r24, 0x08	; 8
     a32:	8c 62       	ori	r24, 0x2C	; 44
     a34:	88 b9       	out	0x08, r24	; 8
     a36:	85 e0       	ldi	r24, 0x05	; 5
     a38:	90 e0       	ldi	r25, 0x00	; 0
     a3a:	6f 93       	push	r22
     a3c:	64 e0       	ldi	r22, 0x04	; 4
     a3e:	6a 95       	dec	r22
     a40:	f1 f7       	brne	.-4      	; 0xa3e <_ZN20OrangutanPushbuttons23getSingleDebouncedPressEh+0x34>
     a42:	6f 91       	pop	r22
     a44:	01 97       	sbiw	r24, 0x01	; 1
     a46:	c9 f7       	brne	.-14     	; 0xa3a <_ZN20OrangutanPushbuttons23getSingleDebouncedPressEh+0x30>
     a48:	80 91 2b 01 	lds	r24, 0x012B
     a4c:	81 30       	cpi	r24, 0x01	; 1
     a4e:	11 f1       	breq	.+68     	; 0xa94 <_ZN20OrangutanPushbuttons23getSingleDebouncedPressEh+0x8a>
     a50:	81 30       	cpi	r24, 0x01	; 1
     a52:	38 f0       	brcs	.+14     	; 0xa62 <_ZN20OrangutanPushbuttons23getSingleDebouncedPressEh+0x58>
     a54:	82 30       	cpi	r24, 0x02	; 2
     a56:	09 f4       	brne	.+2      	; 0xa5a <_ZN20OrangutanPushbuttons23getSingleDebouncedPressEh+0x50>
     a58:	43 c0       	rjmp	.+134    	; 0xae0 <_ZN20OrangutanPushbuttons23getSingleDebouncedPressEh+0xd6>
     a5a:	83 30       	cpi	r24, 0x03	; 3
     a5c:	09 f0       	breq	.+2      	; 0xa60 <_ZN20OrangutanPushbuttons23getSingleDebouncedPressEh+0x56>
     a5e:	89 c0       	rjmp	.+274    	; 0xb72 <_ZN20OrangutanPushbuttons23getSingleDebouncedPressEh+0x168>
     a60:	65 c0       	rjmp	.+202    	; 0xb2c <_ZN20OrangutanPushbuttons23getSingleDebouncedPressEh+0x122>
     a62:	20 2f       	mov	r18, r16
     a64:	30 e0       	ldi	r19, 0x00	; 0
     a66:	81 2f       	mov	r24, r17
     a68:	90 e0       	ldi	r25, 0x00	; 0
     a6a:	80 95       	com	r24
     a6c:	90 95       	com	r25
     a6e:	28 23       	and	r18, r24
     a70:	39 23       	and	r19, r25
     a72:	23 2b       	or	r18, r19
     a74:	09 f4       	brne	.+2      	; 0xa78 <_ZN20OrangutanPushbuttons23getSingleDebouncedPressEh+0x6e>
     a76:	7d c0       	rjmp	.+250    	; 0xb72 <_ZN20OrangutanPushbuttons23getSingleDebouncedPressEh+0x168>
     a78:	10 95       	com	r17
     a7a:	10 23       	and	r17, r16
     a7c:	10 93 26 01 	sts	0x0126, r17
     a80:	40 93 27 01 	sts	0x0127, r20
     a84:	50 93 28 01 	sts	0x0128, r21
     a88:	60 93 29 01 	sts	0x0129, r22
     a8c:	70 93 2a 01 	sts	0x012A, r23
     a90:	81 e0       	ldi	r24, 0x01	; 1
     a92:	6d c0       	rjmp	.+218    	; 0xb6e <_ZN20OrangutanPushbuttons23getSingleDebouncedPressEh+0x164>
     a94:	80 91 27 01 	lds	r24, 0x0127
     a98:	90 91 28 01 	lds	r25, 0x0128
     a9c:	a0 91 29 01 	lds	r26, 0x0129
     aa0:	b0 91 2a 01 	lds	r27, 0x012A
     aa4:	48 1b       	sub	r20, r24
     aa6:	59 0b       	sbc	r21, r25
     aa8:	6a 0b       	sbc	r22, r26
     aaa:	7b 0b       	sbc	r23, r27
     aac:	4f 30       	cpi	r20, 0x0F	; 15
     aae:	51 05       	cpc	r21, r1
     ab0:	61 05       	cpc	r22, r1
     ab2:	71 05       	cpc	r23, r1
     ab4:	08 f4       	brcc	.+2      	; 0xab8 <_ZN20OrangutanPushbuttons23getSingleDebouncedPressEh+0xae>
     ab6:	5d c0       	rjmp	.+186    	; 0xb72 <_ZN20OrangutanPushbuttons23getSingleDebouncedPressEh+0x168>
     ab8:	40 91 26 01 	lds	r20, 0x0126
     abc:	81 2f       	mov	r24, r17
     abe:	90 e0       	ldi	r25, 0x00	; 0
     ac0:	80 95       	com	r24
     ac2:	90 95       	com	r25
     ac4:	24 2f       	mov	r18, r20
     ac6:	30 e0       	ldi	r19, 0x00	; 0
     ac8:	82 23       	and	r24, r18
     aca:	93 23       	and	r25, r19
     acc:	89 2b       	or	r24, r25
     ace:	59 f1       	breq	.+86     	; 0xb26 <_ZN20OrangutanPushbuttons23getSingleDebouncedPressEh+0x11c>
     ad0:	82 e0       	ldi	r24, 0x02	; 2
     ad2:	80 93 2b 01 	sts	0x012B, r24
     ad6:	10 95       	com	r17
     ad8:	14 23       	and	r17, r20
     ada:	10 93 26 01 	sts	0x0126, r17
     ade:	49 c0       	rjmp	.+146    	; 0xb72 <_ZN20OrangutanPushbuttons23getSingleDebouncedPressEh+0x168>
     ae0:	a0 91 26 01 	lds	r26, 0x0126
     ae4:	21 2f       	mov	r18, r17
     ae6:	30 e0       	ldi	r19, 0x00	; 0
     ae8:	ea 2f       	mov	r30, r26
     aea:	f0 e0       	ldi	r31, 0x00	; 0
     aec:	c9 01       	movw	r24, r18
     aee:	8e 23       	and	r24, r30
     af0:	9f 23       	and	r25, r31
     af2:	89 2b       	or	r24, r25
     af4:	79 f0       	breq	.+30     	; 0xb14 <_ZN20OrangutanPushbuttons23getSingleDebouncedPressEh+0x10a>
     af6:	83 e0       	ldi	r24, 0x03	; 3
     af8:	80 93 2b 01 	sts	0x012B, r24
     afc:	1a 23       	and	r17, r26
     afe:	10 93 26 01 	sts	0x0126, r17
     b02:	40 93 27 01 	sts	0x0127, r20
     b06:	50 93 28 01 	sts	0x0128, r21
     b0a:	60 93 29 01 	sts	0x0129, r22
     b0e:	70 93 2a 01 	sts	0x012A, r23
     b12:	2f c0       	rjmp	.+94     	; 0xb72 <_ZN20OrangutanPushbuttons23getSingleDebouncedPressEh+0x168>
     b14:	80 2f       	mov	r24, r16
     b16:	90 e0       	ldi	r25, 0x00	; 0
     b18:	20 95       	com	r18
     b1a:	30 95       	com	r19
     b1c:	82 23       	and	r24, r18
     b1e:	93 23       	and	r25, r19
     b20:	e8 17       	cp	r30, r24
     b22:	f9 07       	cpc	r31, r25
     b24:	31 f1       	breq	.+76     	; 0xb72 <_ZN20OrangutanPushbuttons23getSingleDebouncedPressEh+0x168>
     b26:	10 92 2b 01 	sts	0x012B, r1
     b2a:	23 c0       	rjmp	.+70     	; 0xb72 <_ZN20OrangutanPushbuttons23getSingleDebouncedPressEh+0x168>
     b2c:	80 91 27 01 	lds	r24, 0x0127
     b30:	90 91 28 01 	lds	r25, 0x0128
     b34:	a0 91 29 01 	lds	r26, 0x0129
     b38:	b0 91 2a 01 	lds	r27, 0x012A
     b3c:	48 1b       	sub	r20, r24
     b3e:	59 0b       	sbc	r21, r25
     b40:	6a 0b       	sbc	r22, r26
     b42:	7b 0b       	sbc	r23, r27
     b44:	4f 30       	cpi	r20, 0x0F	; 15
     b46:	51 05       	cpc	r21, r1
     b48:	61 05       	cpc	r22, r1
     b4a:	71 05       	cpc	r23, r1
     b4c:	90 f0       	brcs	.+36     	; 0xb72 <_ZN20OrangutanPushbuttons23getSingleDebouncedPressEh+0x168>
     b4e:	40 91 26 01 	lds	r20, 0x0126
     b52:	81 2f       	mov	r24, r17
     b54:	90 e0       	ldi	r25, 0x00	; 0
     b56:	24 2f       	mov	r18, r20
     b58:	30 e0       	ldi	r19, 0x00	; 0
     b5a:	82 23       	and	r24, r18
     b5c:	93 23       	and	r25, r19
     b5e:	89 2b       	or	r24, r25
     b60:	29 f0       	breq	.+10     	; 0xb6c <_ZN20OrangutanPushbuttons23getSingleDebouncedPressEh+0x162>
     b62:	10 92 2b 01 	sts	0x012B, r1
     b66:	81 2f       	mov	r24, r17
     b68:	84 23       	and	r24, r20
     b6a:	04 c0       	rjmp	.+8      	; 0xb74 <_ZN20OrangutanPushbuttons23getSingleDebouncedPressEh+0x16a>
     b6c:	82 e0       	ldi	r24, 0x02	; 2
     b6e:	80 93 2b 01 	sts	0x012B, r24
     b72:	80 e0       	ldi	r24, 0x00	; 0
     b74:	1f 91       	pop	r17
     b76:	0f 91       	pop	r16
     b78:	08 95       	ret

00000b7a <get_single_debounced_button_press>:
     b7a:	0e 94 05 05 	call	0xa0a	; 0xa0a <_ZN20OrangutanPushbuttons23getSingleDebouncedPressEh>
     b7e:	08 95       	ret

00000b80 <_ZN20OrangutanPushbuttons14waitForReleaseEh>:
     b80:	1f 93       	push	r17
     b82:	cf 93       	push	r28
     b84:	df 93       	push	r29
     b86:	18 2f       	mov	r17, r24
     b88:	80 91 1f 01 	lds	r24, 0x011F
     b8c:	88 23       	and	r24, r24
     b8e:	91 f4       	brne	.+36     	; 0xbb4 <_ZN20OrangutanPushbuttons14waitForReleaseEh+0x34>
     b90:	81 e0       	ldi	r24, 0x01	; 1
     b92:	80 93 1f 01 	sts	0x011F, r24
     b96:	87 b1       	in	r24, 0x07	; 7
     b98:	83 7d       	andi	r24, 0xD3	; 211
     b9a:	87 b9       	out	0x07, r24	; 7
     b9c:	88 b1       	in	r24, 0x08	; 8
     b9e:	8c 62       	ori	r24, 0x2C	; 44
     ba0:	88 b9       	out	0x08, r24	; 8
     ba2:	85 e0       	ldi	r24, 0x05	; 5
     ba4:	90 e0       	ldi	r25, 0x00	; 0
     ba6:	6f 93       	push	r22
     ba8:	64 e0       	ldi	r22, 0x04	; 4
     baa:	6a 95       	dec	r22
     bac:	f1 f7       	brne	.-4      	; 0xbaa <_ZN20OrangutanPushbuttons14waitForReleaseEh+0x2a>
     bae:	6f 91       	pop	r22
     bb0:	01 97       	sbiw	r24, 0x01	; 1
     bb2:	c9 f7       	brne	.-14     	; 0xba6 <_ZN20OrangutanPushbuttons14waitForReleaseEh+0x26>
     bb4:	c1 2f       	mov	r28, r17
     bb6:	d0 e0       	ldi	r29, 0x00	; 0
     bb8:	86 b1       	in	r24, 0x06	; 6
     bba:	90 e0       	ldi	r25, 0x00	; 0
     bbc:	8c 23       	and	r24, r28
     bbe:	9d 23       	and	r25, r29
     bc0:	89 2b       	or	r24, r25
     bc2:	d1 f3       	breq	.-12     	; 0xbb8 <_ZN20OrangutanPushbuttons14waitForReleaseEh+0x38>
     bc4:	8a e0       	ldi	r24, 0x0A	; 10
     bc6:	90 e0       	ldi	r25, 0x00	; 0
     bc8:	0e 94 a6 06 	call	0xd4c	; 0xd4c <_ZN13OrangutanTime17delayMillisecondsEj>
     bcc:	86 b1       	in	r24, 0x06	; 6
     bce:	90 e0       	ldi	r25, 0x00	; 0
     bd0:	8c 23       	and	r24, r28
     bd2:	9d 23       	and	r25, r29
     bd4:	89 2b       	or	r24, r25
     bd6:	81 f3       	breq	.-32     	; 0xbb8 <_ZN20OrangutanPushbuttons14waitForReleaseEh+0x38>
     bd8:	86 b1       	in	r24, 0x06	; 6
     bda:	81 23       	and	r24, r17
     bdc:	df 91       	pop	r29
     bde:	cf 91       	pop	r28
     be0:	1f 91       	pop	r17
     be2:	08 95       	ret

00000be4 <wait_for_button_release>:
     be4:	0e 94 c0 05 	call	0xb80	; 0xb80 <_ZN20OrangutanPushbuttons14waitForReleaseEh>
     be8:	08 95       	ret

00000bea <_ZN20OrangutanPushbuttons12waitForPressEh>:
     bea:	1f 93       	push	r17
     bec:	cf 93       	push	r28
     bee:	df 93       	push	r29
     bf0:	18 2f       	mov	r17, r24
     bf2:	80 91 1f 01 	lds	r24, 0x011F
     bf6:	88 23       	and	r24, r24
     bf8:	91 f4       	brne	.+36     	; 0xc1e <_ZN20OrangutanPushbuttons12waitForPressEh+0x34>
     bfa:	81 e0       	ldi	r24, 0x01	; 1
     bfc:	80 93 1f 01 	sts	0x011F, r24
     c00:	87 b1       	in	r24, 0x07	; 7
     c02:	83 7d       	andi	r24, 0xD3	; 211
     c04:	87 b9       	out	0x07, r24	; 7
     c06:	88 b1       	in	r24, 0x08	; 8
     c08:	8c 62       	ori	r24, 0x2C	; 44
     c0a:	88 b9       	out	0x08, r24	; 8
     c0c:	85 e0       	ldi	r24, 0x05	; 5
     c0e:	90 e0       	ldi	r25, 0x00	; 0
     c10:	6f 93       	push	r22
     c12:	64 e0       	ldi	r22, 0x04	; 4
     c14:	6a 95       	dec	r22
     c16:	f1 f7       	brne	.-4      	; 0xc14 <_ZN20OrangutanPushbuttons12waitForPressEh+0x2a>
     c18:	6f 91       	pop	r22
     c1a:	01 97       	sbiw	r24, 0x01	; 1
     c1c:	c9 f7       	brne	.-14     	; 0xc10 <_ZN20OrangutanPushbuttons12waitForPressEh+0x26>
     c1e:	c1 2f       	mov	r28, r17
     c20:	d0 e0       	ldi	r29, 0x00	; 0
     c22:	86 b1       	in	r24, 0x06	; 6
     c24:	90 e0       	ldi	r25, 0x00	; 0
     c26:	80 95       	com	r24
     c28:	90 95       	com	r25
     c2a:	8c 23       	and	r24, r28
     c2c:	9d 23       	and	r25, r29
     c2e:	89 2b       	or	r24, r25
     c30:	c1 f3       	breq	.-16     	; 0xc22 <_ZN20OrangutanPushbuttons12waitForPressEh+0x38>
     c32:	8a e0       	ldi	r24, 0x0A	; 10
     c34:	90 e0       	ldi	r25, 0x00	; 0
     c36:	0e 94 a6 06 	call	0xd4c	; 0xd4c <_ZN13OrangutanTime17delayMillisecondsEj>
     c3a:	86 b1       	in	r24, 0x06	; 6
     c3c:	90 e0       	ldi	r25, 0x00	; 0
     c3e:	80 95       	com	r24
     c40:	90 95       	com	r25
     c42:	8c 23       	and	r24, r28
     c44:	9d 23       	and	r25, r29
     c46:	89 2b       	or	r24, r25
     c48:	61 f3       	breq	.-40     	; 0xc22 <_ZN20OrangutanPushbuttons12waitForPressEh+0x38>
     c4a:	86 b1       	in	r24, 0x06	; 6
     c4c:	80 95       	com	r24
     c4e:	81 23       	and	r24, r17
     c50:	df 91       	pop	r29
     c52:	cf 91       	pop	r28
     c54:	1f 91       	pop	r17
     c56:	08 95       	ret

00000c58 <_ZN20OrangutanPushbuttons13waitForButtonEh>:
     c58:	1f 93       	push	r17
     c5a:	0e 94 f5 05 	call	0xbea	; 0xbea <_ZN20OrangutanPushbuttons12waitForPressEh>
     c5e:	18 2f       	mov	r17, r24
     c60:	0e 94 c0 05 	call	0xb80	; 0xb80 <_ZN20OrangutanPushbuttons14waitForReleaseEh>
     c64:	81 2f       	mov	r24, r17
     c66:	1f 91       	pop	r17
     c68:	08 95       	ret

00000c6a <wait_for_button>:
     c6a:	0e 94 2c 06 	call	0xc58	; 0xc58 <_ZN20OrangutanPushbuttons13waitForButtonEh>
     c6e:	08 95       	ret

00000c70 <wait_for_button_press>:
     c70:	0e 94 f5 05 	call	0xbea	; 0xbea <_ZN20OrangutanPushbuttons12waitForPressEh>
     c74:	08 95       	ret

00000c76 <__vector_11>:
     c76:	2f 92       	push	r2
     c78:	8f 93       	push	r24
     c7a:	9f 93       	push	r25
     c7c:	2f b6       	in	r2, 0x3f	; 63
     c7e:	80 91 2d 01 	lds	r24, 0x012D
     c82:	90 91 2e 01 	lds	r25, 0x012E
     c86:	01 96       	adiw	r24, 0x01	; 1
     c88:	80 93 2d 01 	sts	0x012D, r24
     c8c:	90 93 2e 01 	sts	0x012E, r25
     c90:	90 e0       	ldi	r25, 0x00	; 0
     c92:	80 91 2f 01 	lds	r24, 0x012F
     c96:	89 1f       	adc	r24, r25
     c98:	80 93 2f 01 	sts	0x012F, r24
     c9c:	90 91 35 01 	lds	r25, 0x0135
     ca0:	9c 5f       	subi	r25, 0xFC	; 252
     ca2:	90 93 35 01 	sts	0x0135, r25
     ca6:	80 91 34 01 	lds	r24, 0x0134
     caa:	80 51       	subi	r24, 0x10	; 16
     cac:	97 42       	sbci	r25, 0x27	; 39
     cae:	c0 f0       	brcs	.+48     	; 0xce0 <end>
     cb0:	90 93 35 01 	sts	0x0135, r25
     cb4:	80 93 34 01 	sts	0x0134, r24
     cb8:	80 91 30 01 	lds	r24, 0x0130
     cbc:	90 91 31 01 	lds	r25, 0x0131
     cc0:	01 96       	adiw	r24, 0x01	; 1
     cc2:	80 93 30 01 	sts	0x0130, r24
     cc6:	90 93 31 01 	sts	0x0131, r25
     cca:	90 e0       	ldi	r25, 0x00	; 0
     ccc:	80 91 32 01 	lds	r24, 0x0132
     cd0:	89 1f       	adc	r24, r25
     cd2:	80 93 32 01 	sts	0x0132, r24
     cd6:	80 91 33 01 	lds	r24, 0x0133
     cda:	89 1f       	adc	r24, r25
     cdc:	80 93 33 01 	sts	0x0133, r24

00000ce0 <end>:
     ce0:	2f be       	out	0x3f, r2	; 63
     ce2:	9f 91       	pop	r25
     ce4:	8f 91       	pop	r24
     ce6:	2f 90       	pop	r2
     ce8:	18 95       	reti

00000cea <ticks_to_microseconds>:
     cea:	6f 5f       	subi	r22, 0xFF	; 255
     cec:	7f 4f       	sbci	r23, 0xFF	; 255
     cee:	8f 4f       	sbci	r24, 0xFF	; 255
     cf0:	9f 4f       	sbci	r25, 0xFF	; 255
     cf2:	66 0f       	add	r22, r22
     cf4:	77 1f       	adc	r23, r23
     cf6:	88 1f       	adc	r24, r24
     cf8:	99 1f       	adc	r25, r25
     cfa:	25 e0       	ldi	r18, 0x05	; 5
     cfc:	30 e0       	ldi	r19, 0x00	; 0
     cfe:	40 e0       	ldi	r20, 0x00	; 0
     d00:	50 e0       	ldi	r21, 0x00	; 0
     d02:	0e 94 26 09 	call	0x124c	; 0x124c <__udivmodsi4>
     d06:	ca 01       	movw	r24, r20
     d08:	b9 01       	movw	r22, r18
     d0a:	08 95       	ret

00000d0c <delay_ms>:
     d0c:	28 ee       	ldi	r18, 0xE8	; 232
     d0e:	33 e0       	ldi	r19, 0x03	; 3
     d10:	09 c0       	rjmp	.+18     	; 0xd24 <delay_ms+0x18>
     d12:	f9 01       	movw	r30, r18
     d14:	6f 93       	push	r22
     d16:	64 e0       	ldi	r22, 0x04	; 4
     d18:	6a 95       	dec	r22
     d1a:	f1 f7       	brne	.-4      	; 0xd18 <delay_ms+0xc>
     d1c:	6f 91       	pop	r22
     d1e:	31 97       	sbiw	r30, 0x01	; 1
     d20:	c9 f7       	brne	.-14     	; 0xd14 <delay_ms+0x8>
     d22:	01 97       	sbiw	r24, 0x01	; 1
     d24:	00 97       	sbiw	r24, 0x00	; 0
     d26:	a9 f7       	brne	.-22     	; 0xd12 <delay_ms+0x6>
     d28:	08 95       	ret

00000d2a <_ZN13OrangutanTime19ticksToMicrosecondsEm>:
     d2a:	6f 5f       	subi	r22, 0xFF	; 255
     d2c:	7f 4f       	sbci	r23, 0xFF	; 255
     d2e:	8f 4f       	sbci	r24, 0xFF	; 255
     d30:	9f 4f       	sbci	r25, 0xFF	; 255
     d32:	66 0f       	add	r22, r22
     d34:	77 1f       	adc	r23, r23
     d36:	88 1f       	adc	r24, r24
     d38:	99 1f       	adc	r25, r25
     d3a:	25 e0       	ldi	r18, 0x05	; 5
     d3c:	30 e0       	ldi	r19, 0x00	; 0
     d3e:	40 e0       	ldi	r20, 0x00	; 0
     d40:	50 e0       	ldi	r21, 0x00	; 0
     d42:	0e 94 26 09 	call	0x124c	; 0x124c <__udivmodsi4>
     d46:	ca 01       	movw	r24, r20
     d48:	b9 01       	movw	r22, r18
     d4a:	08 95       	ret

00000d4c <_ZN13OrangutanTime17delayMillisecondsEj>:
     d4c:	28 ee       	ldi	r18, 0xE8	; 232
     d4e:	33 e0       	ldi	r19, 0x03	; 3
     d50:	09 c0       	rjmp	.+18     	; 0xd64 <_ZN13OrangutanTime17delayMillisecondsEj+0x18>
     d52:	f9 01       	movw	r30, r18
     d54:	6f 93       	push	r22
     d56:	64 e0       	ldi	r22, 0x04	; 4
     d58:	6a 95       	dec	r22
     d5a:	f1 f7       	brne	.-4      	; 0xd58 <_ZN13OrangutanTime17delayMillisecondsEj+0xc>
     d5c:	6f 91       	pop	r22
     d5e:	31 97       	sbiw	r30, 0x01	; 1
     d60:	c9 f7       	brne	.-14     	; 0xd54 <_ZN13OrangutanTime17delayMillisecondsEj+0x8>
     d62:	01 97       	sbiw	r24, 0x01	; 1
     d64:	00 97       	sbiw	r24, 0x00	; 0
     d66:	a9 f7       	brne	.-22     	; 0xd52 <_ZN13OrangutanTime17delayMillisecondsEj+0x6>
     d68:	08 95       	ret

00000d6a <_ZN13OrangutanTime5init2Ev>:
     d6a:	a0 e7       	ldi	r26, 0x70	; 112
     d6c:	b0 e0       	ldi	r27, 0x00	; 0
     d6e:	8c 91       	ld	r24, X
     d70:	8e 7f       	andi	r24, 0xFE	; 254
     d72:	8c 93       	st	X, r24
     d74:	e0 eb       	ldi	r30, 0xB0	; 176
     d76:	f0 e0       	ldi	r31, 0x00	; 0
     d78:	80 81       	ld	r24, Z
     d7a:	83 60       	ori	r24, 0x03	; 3
     d7c:	80 83       	st	Z, r24
     d7e:	e1 eb       	ldi	r30, 0xB1	; 177
     d80:	f0 e0       	ldi	r31, 0x00	; 0
     d82:	80 81       	ld	r24, Z
     d84:	80 7f       	andi	r24, 0xF0	; 240
     d86:	80 83       	st	Z, r24
     d88:	80 81       	ld	r24, Z
     d8a:	82 60       	ori	r24, 0x02	; 2
     d8c:	80 83       	st	Z, r24
     d8e:	b8 9a       	sbi	0x17, 0	; 23
     d90:	8c 91       	ld	r24, X
     d92:	81 60       	ori	r24, 0x01	; 1
     d94:	8c 93       	st	X, r24
     d96:	78 94       	sei
     d98:	08 95       	ret

00000d9a <_ZN13OrangutanTime4initEv>:
     d9a:	80 91 36 01 	lds	r24, 0x0136
     d9e:	88 23       	and	r24, r24
     da0:	29 f4       	brne	.+10     	; 0xdac <_ZN13OrangutanTime4initEv+0x12>
     da2:	81 e0       	ldi	r24, 0x01	; 1
     da4:	80 93 36 01 	sts	0x0136, r24
     da8:	0e 94 b5 06 	call	0xd6a	; 0xd6a <_ZN13OrangutanTime5init2Ev>
     dac:	08 95       	ret

00000dae <_ZN13OrangutanTime2msEv>:
     dae:	0e 94 cd 06 	call	0xd9a	; 0xd9a <_ZN13OrangutanTime4initEv>
     db2:	e0 e7       	ldi	r30, 0x70	; 112
     db4:	f0 e0       	ldi	r31, 0x00	; 0
     db6:	80 81       	ld	r24, Z
     db8:	8e 7f       	andi	r24, 0xFE	; 254
     dba:	80 83       	st	Z, r24
     dbc:	20 91 30 01 	lds	r18, 0x0130
     dc0:	30 91 31 01 	lds	r19, 0x0131
     dc4:	40 91 32 01 	lds	r20, 0x0132
     dc8:	50 91 33 01 	lds	r21, 0x0133
     dcc:	80 81       	ld	r24, Z
     dce:	81 60       	ori	r24, 0x01	; 1
     dd0:	80 83       	st	Z, r24
     dd2:	b9 01       	movw	r22, r18
     dd4:	ca 01       	movw	r24, r20
     dd6:	08 95       	ret

00000dd8 <get_ms>:
     dd8:	0e 94 d7 06 	call	0xdae	; 0xdae <_ZN13OrangutanTime2msEv>
     ddc:	08 95       	ret

00000dde <_ZN13OrangutanTime5ticksEv>:
     dde:	0e 94 cd 06 	call	0xd9a	; 0xd9a <_ZN13OrangutanTime4initEv>
     de2:	80 91 70 00 	lds	r24, 0x0070
     de6:	8e 7f       	andi	r24, 0xFE	; 254
     de8:	80 93 70 00 	sts	0x0070, r24
     dec:	60 91 b2 00 	lds	r22, 0x00B2
     df0:	80 91 2c 01 	lds	r24, 0x012C
     df4:	90 91 2d 01 	lds	r25, 0x012D
     df8:	a0 91 2e 01 	lds	r26, 0x012E
     dfc:	b0 91 2f 01 	lds	r27, 0x012F
     e00:	b8 99       	sbic	0x17, 0	; 23
     e02:	05 c0       	rjmp	.+10     	; 0xe0e <_ZN13OrangutanTime5ticksEv+0x30>
     e04:	26 2f       	mov	r18, r22
     e06:	30 e0       	ldi	r19, 0x00	; 0
     e08:	40 e0       	ldi	r20, 0x00	; 0
     e0a:	50 e0       	ldi	r21, 0x00	; 0
     e0c:	11 c0       	rjmp	.+34     	; 0xe30 <_ZN13OrangutanTime5ticksEv+0x52>
     e0e:	80 91 b2 00 	lds	r24, 0x00B2
     e12:	20 91 2c 01 	lds	r18, 0x012C
     e16:	30 91 2d 01 	lds	r19, 0x012D
     e1a:	40 91 2e 01 	lds	r20, 0x012E
     e1e:	50 91 2f 01 	lds	r21, 0x012F
     e22:	20 50       	subi	r18, 0x00	; 0
     e24:	3f 4f       	sbci	r19, 0xFF	; 255
     e26:	4f 4f       	sbci	r20, 0xFF	; 255
     e28:	5f 4f       	sbci	r21, 0xFF	; 255
     e2a:	90 e0       	ldi	r25, 0x00	; 0
     e2c:	a0 e0       	ldi	r26, 0x00	; 0
     e2e:	b0 e0       	ldi	r27, 0x00	; 0
     e30:	28 2b       	or	r18, r24
     e32:	39 2b       	or	r19, r25
     e34:	4a 2b       	or	r20, r26
     e36:	5b 2b       	or	r21, r27
     e38:	80 91 70 00 	lds	r24, 0x0070
     e3c:	81 60       	ori	r24, 0x01	; 1
     e3e:	80 93 70 00 	sts	0x0070, r24
     e42:	b9 01       	movw	r22, r18
     e44:	ca 01       	movw	r24, r20
     e46:	08 95       	ret

00000e48 <get_ticks>:
     e48:	0e 94 ef 06 	call	0xdde	; 0xdde <_ZN13OrangutanTime5ticksEv>
     e4c:	08 95       	ret

00000e4e <_ZN13OrangutanTime5resetEv>:
     e4e:	0e 94 cd 06 	call	0xd9a	; 0xd9a <_ZN13OrangutanTime4initEv>
     e52:	e0 e7       	ldi	r30, 0x70	; 112
     e54:	f0 e0       	ldi	r31, 0x00	; 0
     e56:	80 81       	ld	r24, Z
     e58:	8e 7f       	andi	r24, 0xFE	; 254
     e5a:	80 83       	st	Z, r24
     e5c:	10 92 30 01 	sts	0x0130, r1
     e60:	10 92 31 01 	sts	0x0131, r1
     e64:	10 92 32 01 	sts	0x0132, r1
     e68:	10 92 33 01 	sts	0x0133, r1
     e6c:	10 92 35 01 	sts	0x0135, r1
     e70:	10 92 34 01 	sts	0x0134, r1
     e74:	80 81       	ld	r24, Z
     e76:	81 60       	ori	r24, 0x01	; 1
     e78:	80 83       	st	Z, r24
     e7a:	08 95       	ret

00000e7c <time_reset>:
     e7c:	0e 94 27 07 	call	0xe4e	; 0xe4e <_ZN13OrangutanTime5resetEv>
     e80:	08 95       	ret

00000e82 <_ZN12OrangutanSVP7setModeEh>:
     e82:	98 2f       	mov	r25, r24
     e84:	80 91 4d 01 	lds	r24, 0x014D
     e88:	89 17       	cp	r24, r25
     e8a:	39 f0       	breq	.+14     	; 0xe9a <_ZN12OrangutanSVP7setModeEh+0x18>
     e8c:	90 93 4d 01 	sts	0x014D, r25
     e90:	89 2f       	mov	r24, r25
     e92:	80 6c       	ori	r24, 0xC0	; 192
     e94:	65 e0       	ldi	r22, 0x05	; 5
     e96:	0e 94 a9 08 	call	0x1152	; 0x1152 <_ZN18OrangutanSPIMaster16transmitAndDelayEhh>
     e9a:	08 95       	ret

00000e9c <svp_set_mode>:
     e9c:	0e 94 41 07 	call	0xe82	; 0xe82 <_ZN12OrangutanSVP7setModeEh>
     ea0:	08 95       	ret

00000ea2 <_ZN12OrangutanSVP17serialSendIfReadyEc>:
     ea2:	1f 93       	push	r17
     ea4:	18 2f       	mov	r17, r24
     ea6:	88 1f       	adc	r24, r24
     ea8:	88 27       	eor	r24, r24
     eaa:	88 1f       	adc	r24, r24
     eac:	8c 57       	subi	r24, 0x7C	; 124
     eae:	65 e0       	ldi	r22, 0x05	; 5
     eb0:	0e 94 a9 08 	call	0x1152	; 0x1152 <_ZN18OrangutanSPIMaster16transmitAndDelayEhh>
     eb4:	81 2f       	mov	r24, r17
     eb6:	8f 77       	andi	r24, 0x7F	; 127
     eb8:	65 e0       	ldi	r22, 0x05	; 5
     eba:	0e 94 a9 08 	call	0x1152	; 0x1152 <_ZN18OrangutanSPIMaster16transmitAndDelayEhh>
     ebe:	1f 91       	pop	r17
     ec0:	08 95       	ret

00000ec2 <_ZN12OrangutanSVP11getNextByteEv>:
     ec2:	8f ef       	ldi	r24, 0xFF	; 255
     ec4:	64 e0       	ldi	r22, 0x04	; 4
     ec6:	0e 94 a9 08 	call	0x1152	; 0x1152 <_ZN18OrangutanSPIMaster16transmitAndDelayEhh>
     eca:	08 95       	ret

00000ecc <_ZL23updateVariablesIfNeededv>:
     ecc:	cf 93       	push	r28
     ece:	df 93       	push	r29
     ed0:	0e 94 d7 06 	call	0xdae	; 0xdae <_ZN13OrangutanTime2msEv>
     ed4:	20 91 12 01 	lds	r18, 0x0112
     ed8:	30 91 13 01 	lds	r19, 0x0113
     edc:	40 91 14 01 	lds	r20, 0x0114
     ee0:	50 91 15 01 	lds	r21, 0x0115
     ee4:	62 17       	cp	r22, r18
     ee6:	73 07       	cpc	r23, r19
     ee8:	84 07       	cpc	r24, r20
     eea:	95 07       	cpc	r25, r21
     eec:	b9 f0       	breq	.+46     	; 0xf1c <_ZL23updateVariablesIfNeededv+0x50>
     eee:	81 e8       	ldi	r24, 0x81	; 129
     ef0:	67 e0       	ldi	r22, 0x07	; 7
     ef2:	0e 94 a9 08 	call	0x1152	; 0x1152 <_ZN18OrangutanSPIMaster16transmitAndDelayEhh>
     ef6:	c0 e4       	ldi	r28, 0x40	; 64
     ef8:	d1 e0       	ldi	r29, 0x01	; 1
     efa:	0e 94 61 07 	call	0xec2	; 0xec2 <_ZN12OrangutanSVP11getNextByteEv>
     efe:	89 93       	st	Y+, r24
     f00:	81 e0       	ldi	r24, 0x01	; 1
     f02:	cd 34       	cpi	r28, 0x4D	; 77
     f04:	d8 07       	cpc	r29, r24
     f06:	c9 f7       	brne	.-14     	; 0xefa <_ZL23updateVariablesIfNeededv+0x2e>
     f08:	0e 94 d7 06 	call	0xdae	; 0xdae <_ZN13OrangutanTime2msEv>
     f0c:	60 93 12 01 	sts	0x0112, r22
     f10:	70 93 13 01 	sts	0x0113, r23
     f14:	80 93 14 01 	sts	0x0114, r24
     f18:	90 93 15 01 	sts	0x0115, r25
     f1c:	df 91       	pop	r29
     f1e:	cf 91       	pop	r28
     f20:	08 95       	ret

00000f22 <_ZN12OrangutanSVP9getStatusEv>:
     f22:	0e 94 66 07 	call	0xecc	; 0xecc <_ZL23updateVariablesIfNeededv>
     f26:	80 91 40 01 	lds	r24, 0x0140
     f2a:	08 95       	ret

00000f2c <svp_get_status>:
     f2c:	0e 94 91 07 	call	0xf22	; 0xf22 <_ZN12OrangutanSVP9getStatusEv>
     f30:	08 95       	ret

00000f32 <_ZN12OrangutanSVP21getChannelDMillivoltsEv>:
     f32:	0e 94 66 07 	call	0xecc	; 0xecc <_ZL23updateVariablesIfNeededv>
     f36:	80 91 47 01 	lds	r24, 0x0147
     f3a:	90 91 48 01 	lds	r25, 0x0148
     f3e:	08 95       	ret

00000f40 <_ZN12OrangutanSVP21getChannelCMillivoltsEv>:
     f40:	0e 94 66 07 	call	0xecc	; 0xecc <_ZL23updateVariablesIfNeededv>
     f44:	80 91 45 01 	lds	r24, 0x0145
     f48:	90 91 46 01 	lds	r25, 0x0146
     f4c:	08 95       	ret

00000f4e <_ZN12OrangutanSVP21getChannelBMillivoltsEv>:
     f4e:	0e 94 66 07 	call	0xecc	; 0xecc <_ZL23updateVariablesIfNeededv>
     f52:	80 91 43 01 	lds	r24, 0x0143
     f56:	90 91 44 01 	lds	r25, 0x0144
     f5a:	08 95       	ret

00000f5c <_ZN12OrangutanSVP21getChannelAMillivoltsEv>:
     f5c:	0e 94 66 07 	call	0xecc	; 0xecc <_ZL23updateVariablesIfNeededv>
     f60:	80 91 41 01 	lds	r24, 0x0141
     f64:	90 91 42 01 	lds	r25, 0x0142
     f68:	08 95       	ret

00000f6a <_ZN12OrangutanSVP20getBatteryMillivoltsEv>:
     f6a:	0e 94 66 07 	call	0xecc	; 0xecc <_ZL23updateVariablesIfNeededv>
     f6e:	80 91 4b 01 	lds	r24, 0x014B
     f72:	90 91 4c 01 	lds	r25, 0x014C
     f76:	08 95       	ret

00000f78 <_ZN12OrangutanSVP20getTrimpotMillivoltsEv>:
     f78:	0e 94 66 07 	call	0xecc	; 0xecc <_ZL23updateVariablesIfNeededv>
     f7c:	80 91 49 01 	lds	r24, 0x0149
     f80:	90 91 4a 01 	lds	r25, 0x014A
     f84:	08 95       	ret

00000f86 <_ZN12OrangutanSVP15serialReadStartEv>:
     f86:	83 e8       	ldi	r24, 0x83	; 131
     f88:	67 e0       	ldi	r22, 0x07	; 7
     f8a:	0e 94 a9 08 	call	0x1152	; 0x1152 <_ZN18OrangutanSPIMaster16transmitAndDelayEhh>
     f8e:	0e 94 61 07 	call	0xec2	; 0xec2 <_ZN12OrangutanSVP11getNextByteEv>
     f92:	08 95       	ret

00000f94 <_Z14updateEncodersv>:
     f94:	a5 e0       	ldi	r26, 0x05	; 5
     f96:	b0 e0       	ldi	r27, 0x00	; 0
     f98:	e0 ed       	ldi	r30, 0xD0	; 208
     f9a:	f7 e0       	ldi	r31, 0x07	; 7
     f9c:	0c 94 57 09 	jmp	0x12ae	; 0x12ae <__prologue_saves__+0x1e>
     fa0:	82 e8       	ldi	r24, 0x82	; 130
     fa2:	66 e0       	ldi	r22, 0x06	; 6
     fa4:	0e 94 a9 08 	call	0x1152	; 0x1152 <_ZN18OrangutanSPIMaster16transmitAndDelayEhh>
     fa8:	0e 94 61 07 	call	0xec2	; 0xec2 <_ZN12OrangutanSVP11getNextByteEv>
     fac:	80 93 3b 01 	sts	0x013B, r24
     fb0:	0e 94 61 07 	call	0xec2	; 0xec2 <_ZN12OrangutanSVP11getNextByteEv>
     fb4:	80 93 3c 01 	sts	0x013C, r24
     fb8:	0e 94 61 07 	call	0xec2	; 0xec2 <_ZN12OrangutanSVP11getNextByteEv>
     fbc:	80 93 3d 01 	sts	0x013D, r24
     fc0:	0e 94 61 07 	call	0xec2	; 0xec2 <_ZN12OrangutanSVP11getNextByteEv>
     fc4:	80 93 3e 01 	sts	0x013E, r24
     fc8:	10 91 3f 01 	lds	r17, 0x013F
     fcc:	0e 94 61 07 	call	0xec2	; 0xec2 <_ZN12OrangutanSVP11getNextByteEv>
     fd0:	18 2b       	or	r17, r24
     fd2:	10 93 3f 01 	sts	0x013F, r17
     fd6:	de 01       	movw	r26, r28
     fd8:	11 96       	adiw	r26, 0x01	; 1
     fda:	eb e3       	ldi	r30, 0x3B	; 59
     fdc:	f1 e0       	ldi	r31, 0x01	; 1
     fde:	85 e0       	ldi	r24, 0x05	; 5
     fe0:	01 90       	ld	r0, Z+
     fe2:	0d 92       	st	X+, r0
     fe4:	81 50       	subi	r24, 0x01	; 1
     fe6:	e1 f7       	brne	.-8      	; 0xfe0 <_Z14updateEncodersv+0x4c>
     fe8:	29 81       	ldd	r18, Y+1	; 0x01
     fea:	3a 81       	ldd	r19, Y+2	; 0x02
     fec:	4b 81       	ldd	r20, Y+3	; 0x03
     fee:	5c 81       	ldd	r21, Y+4	; 0x04
     ff0:	6d 81       	ldd	r22, Y+5	; 0x05
     ff2:	70 e0       	ldi	r23, 0x00	; 0
     ff4:	90 e0       	ldi	r25, 0x00	; 0
     ff6:	25 96       	adiw	r28, 0x05	; 5
     ff8:	e3 e0       	ldi	r30, 0x03	; 3
     ffa:	0c 94 73 09 	jmp	0x12e6	; 0x12e6 <__epilogue_restores__+0x1e>

00000ffe <_ZL22updateEncodersIfNeededv>:
     ffe:	0e 94 d7 06 	call	0xdae	; 0xdae <_ZN13OrangutanTime2msEv>
    1002:	20 91 0e 01 	lds	r18, 0x010E
    1006:	30 91 0f 01 	lds	r19, 0x010F
    100a:	40 91 10 01 	lds	r20, 0x0110
    100e:	50 91 11 01 	lds	r21, 0x0111
    1012:	62 17       	cp	r22, r18
    1014:	73 07       	cpc	r23, r19
    1016:	84 07       	cpc	r24, r20
    1018:	95 07       	cpc	r25, r21
    101a:	61 f0       	breq	.+24     	; 0x1034 <_ZL22updateEncodersIfNeededv+0x36>
    101c:	0e 94 ca 07 	call	0xf94	; 0xf94 <_Z14updateEncodersv>
    1020:	0e 94 d7 06 	call	0xdae	; 0xdae <_ZN13OrangutanTime2msEv>
    1024:	60 93 0e 01 	sts	0x010E, r22
    1028:	70 93 0f 01 	sts	0x010F, r23
    102c:	80 93 10 01 	sts	0x0110, r24
    1030:	90 93 11 01 	sts	0x0111, r25
    1034:	08 95       	ret

00001036 <_ZN12OrangutanSVP12checkErrorCDEv>:
    1036:	0e 94 ff 07 	call	0xffe	; 0xffe <_ZL22updateEncodersIfNeededv>
    103a:	80 91 3f 01 	lds	r24, 0x013F
    103e:	81 fd       	sbrc	r24, 1
    1040:	02 c0       	rjmp	.+4      	; 0x1046 <_ZN12OrangutanSVP12checkErrorCDEv+0x10>
    1042:	80 e0       	ldi	r24, 0x00	; 0
    1044:	08 95       	ret
    1046:	8d 7f       	andi	r24, 0xFD	; 253
    1048:	80 93 3f 01 	sts	0x013F, r24
    104c:	81 e0       	ldi	r24, 0x01	; 1
    104e:	08 95       	ret

00001050 <svp_check_error_cd>:
    1050:	0e 94 1b 08 	call	0x1036	; 0x1036 <_ZN12OrangutanSVP12checkErrorCDEv>
    1054:	08 95       	ret

00001056 <_ZN12OrangutanSVP12checkErrorABEv>:
    1056:	0e 94 ff 07 	call	0xffe	; 0xffe <_ZL22updateEncodersIfNeededv>
    105a:	80 91 3f 01 	lds	r24, 0x013F
    105e:	80 fd       	sbrc	r24, 0
    1060:	02 c0       	rjmp	.+4      	; 0x1066 <_ZN12OrangutanSVP12checkErrorABEv+0x10>
    1062:	80 e0       	ldi	r24, 0x00	; 0
    1064:	08 95       	ret
    1066:	8e 7f       	andi	r24, 0xFE	; 254
    1068:	80 93 3f 01 	sts	0x013F, r24
    106c:	81 e0       	ldi	r24, 0x01	; 1
    106e:	08 95       	ret

00001070 <svp_check_error_ab>:
    1070:	0e 94 2b 08 	call	0x1056	; 0x1056 <_ZN12OrangutanSVP12checkErrorABEv>
    1074:	08 95       	ret

00001076 <_ZN12OrangutanSVP11getCountsCDEv>:
    1076:	0e 94 ff 07 	call	0xffe	; 0xffe <_ZL22updateEncodersIfNeededv>
    107a:	20 91 3d 01 	lds	r18, 0x013D
    107e:	30 91 3e 01 	lds	r19, 0x013E
    1082:	80 91 39 01 	lds	r24, 0x0139
    1086:	90 91 3a 01 	lds	r25, 0x013A
    108a:	28 1b       	sub	r18, r24
    108c:	39 0b       	sbc	r19, r25
    108e:	c9 01       	movw	r24, r18
    1090:	08 95       	ret

00001092 <_ZN12OrangutanSVP19getCountsAndResetCDEv>:
    1092:	0e 94 3b 08 	call	0x1076	; 0x1076 <_ZN12OrangutanSVP11getCountsCDEv>
    1096:	20 91 3d 01 	lds	r18, 0x013D
    109a:	30 91 3e 01 	lds	r19, 0x013E
    109e:	30 93 3a 01 	sts	0x013A, r19
    10a2:	20 93 39 01 	sts	0x0139, r18
    10a6:	08 95       	ret

000010a8 <svp_get_counts_and_reset_cd>:
    10a8:	0e 94 49 08 	call	0x1092	; 0x1092 <_ZN12OrangutanSVP19getCountsAndResetCDEv>
    10ac:	08 95       	ret

000010ae <svp_get_counts_cd>:
    10ae:	0e 94 3b 08 	call	0x1076	; 0x1076 <_ZN12OrangutanSVP11getCountsCDEv>
    10b2:	08 95       	ret

000010b4 <_ZN12OrangutanSVP11getCountsABEv>:
    10b4:	0e 94 ff 07 	call	0xffe	; 0xffe <_ZL22updateEncodersIfNeededv>
    10b8:	20 91 3b 01 	lds	r18, 0x013B
    10bc:	30 91 3c 01 	lds	r19, 0x013C
    10c0:	80 91 37 01 	lds	r24, 0x0137
    10c4:	90 91 38 01 	lds	r25, 0x0138
    10c8:	28 1b       	sub	r18, r24
    10ca:	39 0b       	sbc	r19, r25
    10cc:	c9 01       	movw	r24, r18
    10ce:	08 95       	ret

000010d0 <_ZN12OrangutanSVP19getCountsAndResetABEv>:
    10d0:	0e 94 5a 08 	call	0x10b4	; 0x10b4 <_ZN12OrangutanSVP11getCountsABEv>
    10d4:	20 91 3b 01 	lds	r18, 0x013B
    10d8:	30 91 3c 01 	lds	r19, 0x013C
    10dc:	30 93 38 01 	sts	0x0138, r19
    10e0:	20 93 37 01 	sts	0x0137, r18
    10e4:	08 95       	ret

000010e6 <svp_get_counts_and_reset_ab>:
    10e6:	0e 94 68 08 	call	0x10d0	; 0x10d0 <_ZN12OrangutanSVP19getCountsAndResetABEv>
    10ea:	08 95       	ret

000010ec <svp_get_counts_ab>:
    10ec:	0e 94 5a 08 	call	0x10b4	; 0x10b4 <_ZN12OrangutanSVP11getCountsABEv>
    10f0:	08 95       	ret

000010f2 <_ZN12OrangutanSVP18getFirmwareVersionEv>:
    10f2:	80 e8       	ldi	r24, 0x80	; 128
    10f4:	65 e0       	ldi	r22, 0x05	; 5
    10f6:	0e 94 a9 08 	call	0x1152	; 0x1152 <_ZN18OrangutanSPIMaster16transmitAndDelayEhh>
    10fa:	0e 94 61 07 	call	0xec2	; 0xec2 <_ZN12OrangutanSVP11getNextByteEv>
    10fe:	08 95       	ret

00001100 <svp_get_firmware_version>:
    1100:	0e 94 79 08 	call	0x10f2	; 0x10f2 <_ZN12OrangutanSVP18getFirmwareVersionEv>
    1104:	08 95       	ret

00001106 <_ZN18OrangutanSPIMaster4initEhh>:
    1106:	98 2f       	mov	r25, r24
    1108:	24 99       	sbic	0x04, 4	; 4
    110a:	0c c0       	rjmp	.+24     	; 0x1124 <_ZN18OrangutanSPIMaster4initEhh+0x1e>
    110c:	2c 99       	sbic	0x05, 4	; 5
    110e:	0a c0       	rjmp	.+20     	; 0x1124 <_ZN18OrangutanSPIMaster4initEhh+0x1e>
    1110:	2c 9a       	sbi	0x05, 4	; 5
    1112:	ee e1       	ldi	r30, 0x1E	; 30
    1114:	f0 e0       	ldi	r31, 0x00	; 0
    1116:	6f 93       	push	r22
    1118:	64 e0       	ldi	r22, 0x04	; 4
    111a:	6a 95       	dec	r22
    111c:	f1 f7       	brne	.-4      	; 0x111a <_ZN18OrangutanSPIMaster4initEhh+0x14>
    111e:	6f 91       	pop	r22
    1120:	31 97       	sbiw	r30, 0x01	; 1
    1122:	c9 f7       	brne	.-14     	; 0x1116 <_ZN18OrangutanSPIMaster4initEhh+0x10>
    1124:	84 b1       	in	r24, 0x04	; 4
    1126:	80 6a       	ori	r24, 0xA0	; 160
    1128:	84 b9       	out	0x04, r24	; 4
    112a:	26 98       	cbi	0x04, 6	; 4
    112c:	89 2f       	mov	r24, r25
    112e:	83 70       	andi	r24, 0x03	; 3
    1130:	80 65       	ori	r24, 0x50	; 80
    1132:	6c 7a       	andi	r22, 0xAC	; 172
    1134:	86 2b       	or	r24, r22
    1136:	8c bd       	out	0x2c, r24	; 44
    1138:	89 2f       	mov	r24, r25
    113a:	90 e0       	ldi	r25, 0x00	; 0
    113c:	96 95       	lsr	r25
    113e:	87 95       	ror	r24
    1140:	96 95       	lsr	r25
    1142:	87 95       	ror	r24
    1144:	81 70       	andi	r24, 0x01	; 1
    1146:	8d bd       	out	0x2d, r24	; 45
    1148:	81 e0       	ldi	r24, 0x01	; 1
    114a:	90 e0       	ldi	r25, 0x00	; 0
    114c:	0e 94 a6 06 	call	0xd4c	; 0xd4c <_ZN13OrangutanTime17delayMillisecondsEj>
    1150:	08 95       	ret

00001152 <_ZN18OrangutanSPIMaster16transmitAndDelayEhh>:
    1152:	0f 93       	push	r16
    1154:	1f 93       	push	r17
    1156:	08 2f       	mov	r16, r24
    1158:	16 2f       	mov	r17, r22
    115a:	0c b4       	in	r0, 0x2c	; 44
    115c:	06 fc       	sbrc	r0, 6
    115e:	04 c0       	rjmp	.+8      	; 0x1168 <_ZN18OrangutanSPIMaster16transmitAndDelayEhh+0x16>
    1160:	80 e0       	ldi	r24, 0x00	; 0
    1162:	64 e0       	ldi	r22, 0x04	; 4
    1164:	0e 94 83 08 	call	0x1106	; 0x1106 <_ZN18OrangutanSPIMaster4initEhh>
    1168:	0c b4       	in	r0, 0x2c	; 44
    116a:	04 fc       	sbrc	r0, 4
    116c:	03 c0       	rjmp	.+6      	; 0x1174 <_ZN18OrangutanSPIMaster16transmitAndDelayEhh+0x22>
    116e:	8c b5       	in	r24, 0x2c	; 44
    1170:	80 61       	ori	r24, 0x10	; 16
    1172:	8c bd       	out	0x2c, r24	; 44
    1174:	0e bd       	out	0x2e, r16	; 46
    1176:	05 c0       	rjmp	.+10     	; 0x1182 <_ZN18OrangutanSPIMaster16transmitAndDelayEhh+0x30>
    1178:	0c b4       	in	r0, 0x2c	; 44
    117a:	04 fc       	sbrc	r0, 4
    117c:	02 c0       	rjmp	.+4      	; 0x1182 <_ZN18OrangutanSPIMaster16transmitAndDelayEhh+0x30>
    117e:	80 e0       	ldi	r24, 0x00	; 0
    1180:	0f c0       	rjmp	.+30     	; 0x11a0 <_ZN18OrangutanSPIMaster16transmitAndDelayEhh+0x4e>
    1182:	0d b4       	in	r0, 0x2d	; 45
    1184:	07 fe       	sbrs	r0, 7
    1186:	f8 cf       	rjmp	.-16     	; 0x1178 <_ZN18OrangutanSPIMaster16transmitAndDelayEhh+0x26>
    1188:	11 23       	and	r17, r17
    118a:	49 f0       	breq	.+18     	; 0x119e <_ZN18OrangutanSPIMaster16transmitAndDelayEhh+0x4c>
    118c:	81 2f       	mov	r24, r17
    118e:	90 e0       	ldi	r25, 0x00	; 0
    1190:	6f 93       	push	r22
    1192:	64 e0       	ldi	r22, 0x04	; 4
    1194:	6a 95       	dec	r22
    1196:	f1 f7       	brne	.-4      	; 0x1194 <_ZN18OrangutanSPIMaster16transmitAndDelayEhh+0x42>
    1198:	6f 91       	pop	r22
    119a:	01 97       	sbiw	r24, 0x01	; 1
    119c:	c9 f7       	brne	.-14     	; 0x1190 <_ZN18OrangutanSPIMaster16transmitAndDelayEhh+0x3e>
    119e:	8e b5       	in	r24, 0x2e	; 46
    11a0:	1f 91       	pop	r17
    11a2:	0f 91       	pop	r16
    11a4:	08 95       	ret

000011a6 <_ZN18OrangutanSPIMaster8transmitEh>:
    11a6:	60 e0       	ldi	r22, 0x00	; 0
    11a8:	0e 94 a9 08 	call	0x1152	; 0x1152 <_ZN18OrangutanSPIMaster16transmitAndDelayEhh>
    11ac:	08 95       	ret

000011ae <spi_master_transmit>:
    11ae:	0e 94 d3 08 	call	0x11a6	; 0x11a6 <_ZN18OrangutanSPIMaster8transmitEh>
    11b2:	08 95       	ret

000011b4 <spi_master_transmit_and_delay>:
    11b4:	0e 94 a9 08 	call	0x1152	; 0x1152 <_ZN18OrangutanSPIMaster16transmitAndDelayEhh>
    11b8:	08 95       	ret

000011ba <spi_master_init>:
    11ba:	0e 94 83 08 	call	0x1106	; 0x1106 <_ZN18OrangutanSPIMaster4initEhh>
    11be:	08 95       	ret

000011c0 <__mulsi3>:
    11c0:	62 9f       	mul	r22, r18
    11c2:	d0 01       	movw	r26, r0
    11c4:	73 9f       	mul	r23, r19
    11c6:	f0 01       	movw	r30, r0
    11c8:	82 9f       	mul	r24, r18
    11ca:	e0 0d       	add	r30, r0
    11cc:	f1 1d       	adc	r31, r1
    11ce:	64 9f       	mul	r22, r20
    11d0:	e0 0d       	add	r30, r0
    11d2:	f1 1d       	adc	r31, r1
    11d4:	92 9f       	mul	r25, r18
    11d6:	f0 0d       	add	r31, r0
    11d8:	83 9f       	mul	r24, r19
    11da:	f0 0d       	add	r31, r0
    11dc:	74 9f       	mul	r23, r20
    11de:	f0 0d       	add	r31, r0
    11e0:	65 9f       	mul	r22, r21
    11e2:	f0 0d       	add	r31, r0
    11e4:	99 27       	eor	r25, r25
    11e6:	72 9f       	mul	r23, r18
    11e8:	b0 0d       	add	r27, r0
    11ea:	e1 1d       	adc	r30, r1
    11ec:	f9 1f       	adc	r31, r25
    11ee:	63 9f       	mul	r22, r19
    11f0:	b0 0d       	add	r27, r0
    11f2:	e1 1d       	adc	r30, r1
    11f4:	f9 1f       	adc	r31, r25
    11f6:	bd 01       	movw	r22, r26
    11f8:	cf 01       	movw	r24, r30
    11fa:	11 24       	eor	r1, r1
    11fc:	08 95       	ret

000011fe <__udivmodhi4>:
    11fe:	aa 1b       	sub	r26, r26
    1200:	bb 1b       	sub	r27, r27
    1202:	51 e1       	ldi	r21, 0x11	; 17
    1204:	07 c0       	rjmp	.+14     	; 0x1214 <__udivmodhi4_ep>

00001206 <__udivmodhi4_loop>:
    1206:	aa 1f       	adc	r26, r26
    1208:	bb 1f       	adc	r27, r27
    120a:	a6 17       	cp	r26, r22
    120c:	b7 07       	cpc	r27, r23
    120e:	10 f0       	brcs	.+4      	; 0x1214 <__udivmodhi4_ep>
    1210:	a6 1b       	sub	r26, r22
    1212:	b7 0b       	sbc	r27, r23

00001214 <__udivmodhi4_ep>:
    1214:	88 1f       	adc	r24, r24
    1216:	99 1f       	adc	r25, r25
    1218:	5a 95       	dec	r21
    121a:	a9 f7       	brne	.-22     	; 0x1206 <__udivmodhi4_loop>
    121c:	80 95       	com	r24
    121e:	90 95       	com	r25
    1220:	bc 01       	movw	r22, r24
    1222:	cd 01       	movw	r24, r26
    1224:	08 95       	ret

00001226 <__divmodhi4>:
    1226:	97 fb       	bst	r25, 7
    1228:	09 2e       	mov	r0, r25
    122a:	07 26       	eor	r0, r23
    122c:	0a d0       	rcall	.+20     	; 0x1242 <__divmodhi4_neg1>
    122e:	77 fd       	sbrc	r23, 7
    1230:	04 d0       	rcall	.+8      	; 0x123a <__divmodhi4_neg2>
    1232:	e5 df       	rcall	.-54     	; 0x11fe <__udivmodhi4>
    1234:	06 d0       	rcall	.+12     	; 0x1242 <__divmodhi4_neg1>
    1236:	00 20       	and	r0, r0
    1238:	1a f4       	brpl	.+6      	; 0x1240 <__divmodhi4_exit>

0000123a <__divmodhi4_neg2>:
    123a:	70 95       	com	r23
    123c:	61 95       	neg	r22
    123e:	7f 4f       	sbci	r23, 0xFF	; 255

00001240 <__divmodhi4_exit>:
    1240:	08 95       	ret

00001242 <__divmodhi4_neg1>:
    1242:	f6 f7       	brtc	.-4      	; 0x1240 <__divmodhi4_exit>
    1244:	90 95       	com	r25
    1246:	81 95       	neg	r24
    1248:	9f 4f       	sbci	r25, 0xFF	; 255
    124a:	08 95       	ret

0000124c <__udivmodsi4>:
    124c:	a1 e2       	ldi	r26, 0x21	; 33
    124e:	1a 2e       	mov	r1, r26
    1250:	aa 1b       	sub	r26, r26
    1252:	bb 1b       	sub	r27, r27
    1254:	fd 01       	movw	r30, r26
    1256:	0d c0       	rjmp	.+26     	; 0x1272 <__udivmodsi4_ep>

00001258 <__udivmodsi4_loop>:
    1258:	aa 1f       	adc	r26, r26
    125a:	bb 1f       	adc	r27, r27
    125c:	ee 1f       	adc	r30, r30
    125e:	ff 1f       	adc	r31, r31
    1260:	a2 17       	cp	r26, r18
    1262:	b3 07       	cpc	r27, r19
    1264:	e4 07       	cpc	r30, r20
    1266:	f5 07       	cpc	r31, r21
    1268:	20 f0       	brcs	.+8      	; 0x1272 <__udivmodsi4_ep>
    126a:	a2 1b       	sub	r26, r18
    126c:	b3 0b       	sbc	r27, r19
    126e:	e4 0b       	sbc	r30, r20
    1270:	f5 0b       	sbc	r31, r21

00001272 <__udivmodsi4_ep>:
    1272:	66 1f       	adc	r22, r22
    1274:	77 1f       	adc	r23, r23
    1276:	88 1f       	adc	r24, r24
    1278:	99 1f       	adc	r25, r25
    127a:	1a 94       	dec	r1
    127c:	69 f7       	brne	.-38     	; 0x1258 <__udivmodsi4_loop>
    127e:	60 95       	com	r22
    1280:	70 95       	com	r23
    1282:	80 95       	com	r24
    1284:	90 95       	com	r25
    1286:	9b 01       	movw	r18, r22
    1288:	ac 01       	movw	r20, r24
    128a:	bd 01       	movw	r22, r26
    128c:	cf 01       	movw	r24, r30
    128e:	08 95       	ret

00001290 <__prologue_saves__>:
    1290:	2f 92       	push	r2
    1292:	3f 92       	push	r3
    1294:	4f 92       	push	r4
    1296:	5f 92       	push	r5
    1298:	6f 92       	push	r6
    129a:	7f 92       	push	r7
    129c:	8f 92       	push	r8
    129e:	9f 92       	push	r9
    12a0:	af 92       	push	r10
    12a2:	bf 92       	push	r11
    12a4:	cf 92       	push	r12
    12a6:	df 92       	push	r13
    12a8:	ef 92       	push	r14
    12aa:	ff 92       	push	r15
    12ac:	0f 93       	push	r16
    12ae:	1f 93       	push	r17
    12b0:	cf 93       	push	r28
    12b2:	df 93       	push	r29
    12b4:	cd b7       	in	r28, 0x3d	; 61
    12b6:	de b7       	in	r29, 0x3e	; 62
    12b8:	ca 1b       	sub	r28, r26
    12ba:	db 0b       	sbc	r29, r27
    12bc:	0f b6       	in	r0, 0x3f	; 63
    12be:	f8 94       	cli
    12c0:	de bf       	out	0x3e, r29	; 62
    12c2:	0f be       	out	0x3f, r0	; 63
    12c4:	cd bf       	out	0x3d, r28	; 61
    12c6:	09 94       	ijmp

000012c8 <__epilogue_restores__>:
    12c8:	2a 88       	ldd	r2, Y+18	; 0x12
    12ca:	39 88       	ldd	r3, Y+17	; 0x11
    12cc:	48 88       	ldd	r4, Y+16	; 0x10
    12ce:	5f 84       	ldd	r5, Y+15	; 0x0f
    12d0:	6e 84       	ldd	r6, Y+14	; 0x0e
    12d2:	7d 84       	ldd	r7, Y+13	; 0x0d
    12d4:	8c 84       	ldd	r8, Y+12	; 0x0c
    12d6:	9b 84       	ldd	r9, Y+11	; 0x0b
    12d8:	aa 84       	ldd	r10, Y+10	; 0x0a
    12da:	b9 84       	ldd	r11, Y+9	; 0x09
    12dc:	c8 84       	ldd	r12, Y+8	; 0x08
    12de:	df 80       	ldd	r13, Y+7	; 0x07
    12e0:	ee 80       	ldd	r14, Y+6	; 0x06
    12e2:	fd 80       	ldd	r15, Y+5	; 0x05
    12e4:	0c 81       	ldd	r16, Y+4	; 0x04
    12e6:	1b 81       	ldd	r17, Y+3	; 0x03
    12e8:	aa 81       	ldd	r26, Y+2	; 0x02
    12ea:	b9 81       	ldd	r27, Y+1	; 0x01
    12ec:	ce 0f       	add	r28, r30
    12ee:	d1 1d       	adc	r29, r1
    12f0:	0f b6       	in	r0, 0x3f	; 63
    12f2:	f8 94       	cli
    12f4:	de bf       	out	0x3e, r29	; 62
    12f6:	0f be       	out	0x3f, r0	; 63
    12f8:	cd bf       	out	0x3d, r28	; 61
    12fa:	ed 01       	movw	r28, r26
    12fc:	08 95       	ret

000012fe <malloc>:
    12fe:	cf 93       	push	r28
    1300:	df 93       	push	r29
    1302:	bc 01       	movw	r22, r24
    1304:	82 30       	cpi	r24, 0x02	; 2
    1306:	91 05       	cpc	r25, r1
    1308:	10 f4       	brcc	.+4      	; 0x130e <malloc+0x10>
    130a:	62 e0       	ldi	r22, 0x02	; 2
    130c:	70 e0       	ldi	r23, 0x00	; 0
    130e:	a0 91 50 01 	lds	r26, 0x0150
    1312:	b0 91 51 01 	lds	r27, 0x0151
    1316:	ed 01       	movw	r28, r26
    1318:	e0 e0       	ldi	r30, 0x00	; 0
    131a:	f0 e0       	ldi	r31, 0x00	; 0
    131c:	40 e0       	ldi	r20, 0x00	; 0
    131e:	50 e0       	ldi	r21, 0x00	; 0
    1320:	21 c0       	rjmp	.+66     	; 0x1364 <malloc+0x66>
    1322:	88 81       	ld	r24, Y
    1324:	99 81       	ldd	r25, Y+1	; 0x01
    1326:	86 17       	cp	r24, r22
    1328:	97 07       	cpc	r25, r23
    132a:	69 f4       	brne	.+26     	; 0x1346 <malloc+0x48>
    132c:	8a 81       	ldd	r24, Y+2	; 0x02
    132e:	9b 81       	ldd	r25, Y+3	; 0x03
    1330:	30 97       	sbiw	r30, 0x00	; 0
    1332:	19 f0       	breq	.+6      	; 0x133a <malloc+0x3c>
    1334:	93 83       	std	Z+3, r25	; 0x03
    1336:	82 83       	std	Z+2, r24	; 0x02
    1338:	04 c0       	rjmp	.+8      	; 0x1342 <malloc+0x44>
    133a:	90 93 51 01 	sts	0x0151, r25
    133e:	80 93 50 01 	sts	0x0150, r24
    1342:	fe 01       	movw	r30, r28
    1344:	34 c0       	rjmp	.+104    	; 0x13ae <malloc+0xb0>
    1346:	68 17       	cp	r22, r24
    1348:	79 07       	cpc	r23, r25
    134a:	38 f4       	brcc	.+14     	; 0x135a <malloc+0x5c>
    134c:	41 15       	cp	r20, r1
    134e:	51 05       	cpc	r21, r1
    1350:	19 f0       	breq	.+6      	; 0x1358 <malloc+0x5a>
    1352:	84 17       	cp	r24, r20
    1354:	95 07       	cpc	r25, r21
    1356:	08 f4       	brcc	.+2      	; 0x135a <malloc+0x5c>
    1358:	ac 01       	movw	r20, r24
    135a:	fe 01       	movw	r30, r28
    135c:	8a 81       	ldd	r24, Y+2	; 0x02
    135e:	9b 81       	ldd	r25, Y+3	; 0x03
    1360:	9c 01       	movw	r18, r24
    1362:	e9 01       	movw	r28, r18
    1364:	20 97       	sbiw	r28, 0x00	; 0
    1366:	e9 f6       	brne	.-70     	; 0x1322 <malloc+0x24>
    1368:	41 15       	cp	r20, r1
    136a:	51 05       	cpc	r21, r1
    136c:	a9 f1       	breq	.+106    	; 0x13d8 <malloc+0xda>
    136e:	ca 01       	movw	r24, r20
    1370:	86 1b       	sub	r24, r22
    1372:	97 0b       	sbc	r25, r23
    1374:	04 97       	sbiw	r24, 0x04	; 4
    1376:	08 f4       	brcc	.+2      	; 0x137a <malloc+0x7c>
    1378:	ba 01       	movw	r22, r20
    137a:	e0 e0       	ldi	r30, 0x00	; 0
    137c:	f0 e0       	ldi	r31, 0x00	; 0
    137e:	2a c0       	rjmp	.+84     	; 0x13d4 <malloc+0xd6>
    1380:	8d 91       	ld	r24, X+
    1382:	9c 91       	ld	r25, X
    1384:	11 97       	sbiw	r26, 0x01	; 1
    1386:	84 17       	cp	r24, r20
    1388:	95 07       	cpc	r25, r21
    138a:	f9 f4       	brne	.+62     	; 0x13ca <malloc+0xcc>
    138c:	64 17       	cp	r22, r20
    138e:	75 07       	cpc	r23, r21
    1390:	81 f4       	brne	.+32     	; 0x13b2 <malloc+0xb4>
    1392:	12 96       	adiw	r26, 0x02	; 2
    1394:	8d 91       	ld	r24, X+
    1396:	9c 91       	ld	r25, X
    1398:	13 97       	sbiw	r26, 0x03	; 3
    139a:	30 97       	sbiw	r30, 0x00	; 0
    139c:	19 f0       	breq	.+6      	; 0x13a4 <malloc+0xa6>
    139e:	93 83       	std	Z+3, r25	; 0x03
    13a0:	82 83       	std	Z+2, r24	; 0x02
    13a2:	04 c0       	rjmp	.+8      	; 0x13ac <malloc+0xae>
    13a4:	90 93 51 01 	sts	0x0151, r25
    13a8:	80 93 50 01 	sts	0x0150, r24
    13ac:	fd 01       	movw	r30, r26
    13ae:	32 96       	adiw	r30, 0x02	; 2
    13b0:	4f c0       	rjmp	.+158    	; 0x1450 <malloc+0x152>
    13b2:	ca 01       	movw	r24, r20
    13b4:	86 1b       	sub	r24, r22
    13b6:	97 0b       	sbc	r25, r23
    13b8:	fd 01       	movw	r30, r26
    13ba:	e8 0f       	add	r30, r24
    13bc:	f9 1f       	adc	r31, r25
    13be:	61 93       	st	Z+, r22
    13c0:	71 93       	st	Z+, r23
    13c2:	02 97       	sbiw	r24, 0x02	; 2
    13c4:	8d 93       	st	X+, r24
    13c6:	9c 93       	st	X, r25
    13c8:	43 c0       	rjmp	.+134    	; 0x1450 <malloc+0x152>
    13ca:	fd 01       	movw	r30, r26
    13cc:	82 81       	ldd	r24, Z+2	; 0x02
    13ce:	93 81       	ldd	r25, Z+3	; 0x03
    13d0:	9c 01       	movw	r18, r24
    13d2:	d9 01       	movw	r26, r18
    13d4:	10 97       	sbiw	r26, 0x00	; 0
    13d6:	a1 f6       	brne	.-88     	; 0x1380 <malloc+0x82>
    13d8:	80 91 4e 01 	lds	r24, 0x014E
    13dc:	90 91 4f 01 	lds	r25, 0x014F
    13e0:	89 2b       	or	r24, r25
    13e2:	41 f4       	brne	.+16     	; 0x13f4 <malloc+0xf6>
    13e4:	80 91 18 01 	lds	r24, 0x0118
    13e8:	90 91 19 01 	lds	r25, 0x0119
    13ec:	90 93 4f 01 	sts	0x014F, r25
    13f0:	80 93 4e 01 	sts	0x014E, r24
    13f4:	40 91 1a 01 	lds	r20, 0x011A
    13f8:	50 91 1b 01 	lds	r21, 0x011B
    13fc:	41 15       	cp	r20, r1
    13fe:	51 05       	cpc	r21, r1
    1400:	41 f4       	brne	.+16     	; 0x1412 <malloc+0x114>
    1402:	4d b7       	in	r20, 0x3d	; 61
    1404:	5e b7       	in	r21, 0x3e	; 62
    1406:	80 91 16 01 	lds	r24, 0x0116
    140a:	90 91 17 01 	lds	r25, 0x0117
    140e:	48 1b       	sub	r20, r24
    1410:	59 0b       	sbc	r21, r25
    1412:	20 91 4e 01 	lds	r18, 0x014E
    1416:	30 91 4f 01 	lds	r19, 0x014F
    141a:	24 17       	cp	r18, r20
    141c:	35 07       	cpc	r19, r21
    141e:	b0 f4       	brcc	.+44     	; 0x144c <malloc+0x14e>
    1420:	ca 01       	movw	r24, r20
    1422:	82 1b       	sub	r24, r18
    1424:	93 0b       	sbc	r25, r19
    1426:	86 17       	cp	r24, r22
    1428:	97 07       	cpc	r25, r23
    142a:	80 f0       	brcs	.+32     	; 0x144c <malloc+0x14e>
    142c:	ab 01       	movw	r20, r22
    142e:	4e 5f       	subi	r20, 0xFE	; 254
    1430:	5f 4f       	sbci	r21, 0xFF	; 255
    1432:	84 17       	cp	r24, r20
    1434:	95 07       	cpc	r25, r21
    1436:	50 f0       	brcs	.+20     	; 0x144c <malloc+0x14e>
    1438:	42 0f       	add	r20, r18
    143a:	53 1f       	adc	r21, r19
    143c:	50 93 4f 01 	sts	0x014F, r21
    1440:	40 93 4e 01 	sts	0x014E, r20
    1444:	f9 01       	movw	r30, r18
    1446:	61 93       	st	Z+, r22
    1448:	71 93       	st	Z+, r23
    144a:	02 c0       	rjmp	.+4      	; 0x1450 <malloc+0x152>
    144c:	e0 e0       	ldi	r30, 0x00	; 0
    144e:	f0 e0       	ldi	r31, 0x00	; 0
    1450:	cf 01       	movw	r24, r30
    1452:	df 91       	pop	r29
    1454:	cf 91       	pop	r28
    1456:	08 95       	ret

00001458 <free>:
    1458:	cf 93       	push	r28
    145a:	df 93       	push	r29
    145c:	00 97       	sbiw	r24, 0x00	; 0
    145e:	09 f4       	brne	.+2      	; 0x1462 <free+0xa>
    1460:	50 c0       	rjmp	.+160    	; 0x1502 <free+0xaa>
    1462:	ec 01       	movw	r28, r24
    1464:	22 97       	sbiw	r28, 0x02	; 2
    1466:	1b 82       	std	Y+3, r1	; 0x03
    1468:	1a 82       	std	Y+2, r1	; 0x02
    146a:	a0 91 50 01 	lds	r26, 0x0150
    146e:	b0 91 51 01 	lds	r27, 0x0151
    1472:	10 97       	sbiw	r26, 0x00	; 0
    1474:	09 f1       	breq	.+66     	; 0x14b8 <free+0x60>
    1476:	40 e0       	ldi	r20, 0x00	; 0
    1478:	50 e0       	ldi	r21, 0x00	; 0
    147a:	ac 17       	cp	r26, r28
    147c:	bd 07       	cpc	r27, r29
    147e:	08 f1       	brcs	.+66     	; 0x14c2 <free+0x6a>
    1480:	bb 83       	std	Y+3, r27	; 0x03
    1482:	aa 83       	std	Y+2, r26	; 0x02
    1484:	fe 01       	movw	r30, r28
    1486:	21 91       	ld	r18, Z+
    1488:	31 91       	ld	r19, Z+
    148a:	e2 0f       	add	r30, r18
    148c:	f3 1f       	adc	r31, r19
    148e:	ae 17       	cp	r26, r30
    1490:	bf 07       	cpc	r27, r31
    1492:	79 f4       	brne	.+30     	; 0x14b2 <free+0x5a>
    1494:	8d 91       	ld	r24, X+
    1496:	9c 91       	ld	r25, X
    1498:	11 97       	sbiw	r26, 0x01	; 1
    149a:	28 0f       	add	r18, r24
    149c:	39 1f       	adc	r19, r25
    149e:	2e 5f       	subi	r18, 0xFE	; 254
    14a0:	3f 4f       	sbci	r19, 0xFF	; 255
    14a2:	39 83       	std	Y+1, r19	; 0x01
    14a4:	28 83       	st	Y, r18
    14a6:	12 96       	adiw	r26, 0x02	; 2
    14a8:	8d 91       	ld	r24, X+
    14aa:	9c 91       	ld	r25, X
    14ac:	13 97       	sbiw	r26, 0x03	; 3
    14ae:	9b 83       	std	Y+3, r25	; 0x03
    14b0:	8a 83       	std	Y+2, r24	; 0x02
    14b2:	41 15       	cp	r20, r1
    14b4:	51 05       	cpc	r21, r1
    14b6:	71 f4       	brne	.+28     	; 0x14d4 <free+0x7c>
    14b8:	d0 93 51 01 	sts	0x0151, r29
    14bc:	c0 93 50 01 	sts	0x0150, r28
    14c0:	20 c0       	rjmp	.+64     	; 0x1502 <free+0xaa>
    14c2:	12 96       	adiw	r26, 0x02	; 2
    14c4:	8d 91       	ld	r24, X+
    14c6:	9c 91       	ld	r25, X
    14c8:	13 97       	sbiw	r26, 0x03	; 3
    14ca:	ad 01       	movw	r20, r26
    14cc:	00 97       	sbiw	r24, 0x00	; 0
    14ce:	11 f0       	breq	.+4      	; 0x14d4 <free+0x7c>
    14d0:	dc 01       	movw	r26, r24
    14d2:	d3 cf       	rjmp	.-90     	; 0x147a <free+0x22>
    14d4:	fa 01       	movw	r30, r20
    14d6:	d3 83       	std	Z+3, r29	; 0x03
    14d8:	c2 83       	std	Z+2, r28	; 0x02
    14da:	21 91       	ld	r18, Z+
    14dc:	31 91       	ld	r19, Z+
    14de:	e2 0f       	add	r30, r18
    14e0:	f3 1f       	adc	r31, r19
    14e2:	ce 17       	cp	r28, r30
    14e4:	df 07       	cpc	r29, r31
    14e6:	69 f4       	brne	.+26     	; 0x1502 <free+0xaa>
    14e8:	88 81       	ld	r24, Y
    14ea:	99 81       	ldd	r25, Y+1	; 0x01
    14ec:	28 0f       	add	r18, r24
    14ee:	39 1f       	adc	r19, r25
    14f0:	2e 5f       	subi	r18, 0xFE	; 254
    14f2:	3f 4f       	sbci	r19, 0xFF	; 255
    14f4:	fa 01       	movw	r30, r20
    14f6:	31 83       	std	Z+1, r19	; 0x01
    14f8:	20 83       	st	Z, r18
    14fa:	8a 81       	ldd	r24, Y+2	; 0x02
    14fc:	9b 81       	ldd	r25, Y+3	; 0x03
    14fe:	93 83       	std	Z+3, r25	; 0x03
    1500:	82 83       	std	Z+2, r24	; 0x02
    1502:	df 91       	pop	r29
    1504:	cf 91       	pop	r28
    1506:	08 95       	ret

00001508 <_exit>:
    1508:	f8 94       	cli

0000150a <__stop_program>:
    150a:	ff cf       	rjmp	.-2      	; 0x150a <__stop_program>
